c__builtin__
set
p0
((lp1
Vryankalil
p2
aVBIGMATT_71
p3
aVclevelandshow82
p4
aVQ_nealy54
p5
aV74_hump
p6
aVClarkHarris46
p7
aVDo_OrAddae37
p8
aVAsendejo
p9
aVDWalls2ND
p10
aVChaseAllen5
p11
aVIAM_Dat_One
p12
aVJonathanstewar1
p13
aVThirdEyeSi_
p14
aVAlexCarter
p15
aVryan_kelly70
p16
aVSEVENs__UP
p17
aVCQReed74
p18
aV_Tron9_
p19
aVRjHarris15
p20
aVCyRich68
p21
aVcjwilson95
p22
aVHAYNKING
p23
aVphil_dawson_4
p24
aVMarcuscannon61
p25
aVOneway_Reedy
p26
aVtfrederick72
p27
aVCornWash
p28
aVMarcusEasley
p29
aV_Showtime29
p30
aVgotsis96
p31
aVMattOverton_LS
p32
aVBryceBrown_34
p33
aVDBE_rell
p34
aVAzizShittu
p35
aVLawrenceLThomas
p36
aVBrandonFusco
p37
aVNuff_ced70
p38
aVCyrusGray32
p39
aVqdiggs6
p40
aVDanielRod_83
p41
aVRyanRamczyk1
p42
aVGreezy_75
p43
aVdevontafreeman
p44
aVrealronalddarby
p45
aVcaptain_41
p46
aVT_Ocho8
p47
aVBigLeary65
p48
aV21DM_ERA
p49
aVBoobie24Dixon
p50
aVTim_Hightower
p51
aVRashedehageman
p52
aVConnorBarwin98
p53
aVHeDoubleTrouble
p54
aVBrandonW_66
p55
aVMGarcia_76
p56
aVReemBoi25
p57
aVdarthBoCa
p58
aVKgaskins5
p59
aVTswan64
p60
aV_ODOG23
p61
aVJordanHicks
p62
aVMason_Foster
p63
aVBishop_YN
p64
aVAXJ76
p65
aVJC_PUNISHER_GA
p66
aVDon_Jones5
p67
aVB_Bell10
p68
aVBVitabile
p69
aVpcox16
p70
aVAnthony_Walters
p71
aVPB_Number2
p72
aVjstaley74
p73
aVtoryslater92
p74
aVkuhnj30
p75
aVtattedNspatted
p76
aVAKouandjio74
p77
aVLarryFoote313
p78
aVMikeyQuince
p79
aVcarsontink
p80
aVNickTheGreat8
p81
aVjacegable
p82
aVgupo92
p83
aVWhiteUnicorn23
p84
aVAntonioGates85
p85
aVChrisMaragos
p86
aVtrobinson78
p87
aVSergioBrown38
p88
aVbrettkern6
p89
aVTeamLee1
p90
aVUncleDarryl76
p91
aVvsunseri3
p92
aVrobhavenstein78
p93
aVKMcD47
p94
aVPhillips_17
p95
aVBIGboehmTHEORY
p96
aVwinstonguyjr27
p97
aVgreengoblin
p98
aVwjohnson67
p99
aVDonCarey
p100
aVdiesel62wku
p101
aVshamarko21ya
p102
aVEbron85
p103
aVgra89ham
p104
aVRealLoganRyan
p105
aVHarriSmith22
p106
aVNoMooreQuit50
p107
aVTheGregChilds85
p108
aVandrewdepaola
p109
aVjtuck9
p110
aVSethDevalve
p111
aVBowling34ball
p112
aVB_Perriman11
p113
aVarr2four
p114
aVWilsonRamik
p115
aVRonBrooks33
p116
aVJRich__23
p117
aVPhilTaylor98
p118
aVMalcolmJenkins
p119
aVJdotBurris32
p120
aVK2P21
p121
aVKirko58
p122
aV_legendof_3
p123
aVlasnoop24
p124
aVBobbyRainey
p125
aVsharriffloyd
p126
aVSuupaman77
p127
aVmike96bennett
p128
aVJB_five7
p129
aVStormJohnson8
p130
aVEzekielElliott
p131
aVSidneyJonesIV
p132
aVIWilliams95
p133
aVPR56
p134
aVKyleWilliams_10
p135
aVphenom2323
p136
aVzanebeadles
p137
aVchampdean_5one
p138
aVEmanOgbah
p139
aVRamonFoster
p140
aVXavierRhodes29_
p141
aVgreg_toler
p142
aVMark_Sanchez
p143
aVSteiger78
p144
aVCM_Lockdown25
p145
aVTomSavage03
p146
aVT26Brock
p147
aVT2Boykin
p148
aVaqshipley
p149
aVStretch_did_dat
p150
aVCJSPILLER
p151
aVCmike33
p152
aVJKearse_15
p153
aVBlairWalsh3
p154
aVdjjones_44
p155
aVAdrianPeterson
p156
aV__allcost
p157
aVjakematthews70
p158
aVAmeerguapo
p159
aVmaualuga58
p160
aVtrevor_knight9
p161
aVcowstown
p162
aVMr_A1Hunt
p163
aVTheoRiddick
p164
aVBrandonLinder65
p165
aVNatBerhe
p166
aVReitErDie78
p167
aVOGSlick_46
p168
aVjonweeks46
p169
aVM_Coccia_70
p170
aV44_Matakevich
p171
aVWeatherford5
p172
aVSollyThomas90
p173
aVWILL_GHOLSTON2
p174
aVD_Swann
p175
aVKyleEmanuel51
p176
aVRaShaunAllen_
p177
aVVMcDonald89
p178
aVRees_o71
p179
aVK_Drummond23
p180
aVMrEugeneMonroe
p181
aVMattylac11
p182
aVJeffLuc1
p183
aV_RobertoAguayo
p184
aVTheStone64
p185
aVB_Good_Son
p186
aVNateSudfeld
p187
aVthursty4success
p188
aVTramain_Jacobs
p189
aVyoungamazing9
p190
aVEddieYarbrough
p191
aVtankcarder
p192
aV2ShaunDraughn0
p193
aVTerrenceMagee
p194
aVADavidArkin
p195
aVBeAst_MoDe90
p196
aVIam_jerryhughes
p197
aVbigdavis813
p198
aVkk_mr93
p199
aVT_Fab81
p200
aVNino_Black_9
p201
aVJavierArenas21
p202
aVKennyBritt_18
p203
aVD33_foreman
p204
aVVinnyVidiVici98
p205
aV5DeuceHerrera
p206
aV_TheDreamIsHere
p207
aVGerodHolliman
p208
aVRontezMiles
p209
aVZaneG_5
p210
aVTourekWilliams
p211
aVReevesMaybin
p212
aVDeAndreHopkins
p213
aVCRedd90
p214
aVDat_Dude_Nix
p215
aVDPENN70
p216
aVGCells85
p217
aVking_david1989
p218
aVspaight1
p219
aVryandaytime
p220
aVDerek_Wolfe95
p221
aVKelvinSheppard
p222
aVlyfeoftp
p223
aVJjenkzLockdown
p224
aVmillertime_6
p225
aVJ_Rey_11
p226
aV2CBryant
p227
aVRioBoi_17
p228
aVDorsett_4
p229
aVmosesbread72
p230
aVbrianhartline
p231
aVJhalapio67
p232
aVDreKirkSWAG
p233
aVOday_Aboushi75
p234
aVEngaged2Success
p235
aVTyson_94
p236
aVCoreyWootton
p237
aVCantguardmike
p238
aVJayBrom96
p239
aVDrango58
p240
aVnspence94
p241
aVshonrp2
p242
aVG80grif
p243
aVDex_Mac
p244
aVJCONNER38
p245
aVSweetFeet_White
p246
aVJeremyHill33
p247
aVdmorg91
p248
aVbwalt19
p249
aVjenkinsjohn6
p250
aVD_alexander57
p251
aVbigxmanee
p252
aVDiMonstAr34
p253
aVCutonDime25
p254
aVgo_10_
p255
aVkarlos_sr
p256
aVchamlett_89
p257
aVJ_Staples57
p258
aVNigelBradham_13
p259
aVmickbauks
p260
aVbriancushing56
p261
aVDrewBut13r
p262
aVBradMarquez_4
p263
aVKaiForbath
p264
aVLanningSpencer
p265
aVMichael_Mauti
p266
aVCG1three
p267
aVGeraldini93
p268
aVTwoStarScoob
p269
aVSharpe_Theory
p270
aVJHeuerman86
p271
aVKULABAFI
p272
aVAllenReisner
p273
aVmorgancox46
p274
aVSilentGrind2
p275
aVjerod_mayo51
p276
aVBMarshh
p277
aVsammiecoates11
p278
aVKalebJ72
p279
aVShaquillG
p280
aVMargus_Hunt
p281
aVBrandonT_98
p282
aVc4rs0n
p283
aV_bigplayslay23
p284
aVJasonWitten
p285
aVerikmagnuson78
p286
aVmremmers74
p287
aVdrewill44
p288
aVcyp
p289
aVSonic99_SC
p290
aVJKerley11
p291
aV15HARLEM_BOSKI
p292
aVpalepoi95
p293
aVJordyRNelson
p294
aVArreliousBenn
p295
aVAmariCooper9
p296
aVkevjr9
p297
aVJuwanJuju23
p298
aVBigTimeHank
p299
aVjstaten90
p300
aVericweems
p301
aVMikeEvans13_
p302
aVsuperdj56
p303
aVJeremyLangford
p304
aVyoung_datruth
p305
aVYoungWill79
p306
aVJ_No24
p307
aVprichiejr
p308
aVPaceMurphy
p309
aVC42Clay
p310
aVBigBuckMcGee92
p311
aVTspoon90
p312
aVAdrianColbert27
p313
aVMDOTADAMS20
p314
aVSacManJones_29
p315
aVM_Rush44
p316
aVChrisCanty99
p317
aVAkeemDent
p318
aVaokafor57
p319
aVT_Robinson39
p320
aVGeorgeFant74
p321
aVphillybrown10
p322
aVDemaryiusT
p323
aVBearPascoe
p324
aVLWebb21
p325
aVPatODonnell_16
p326
aVCGtwelve_
p327
aVj_hamm86
p328
aVTony_Garcia53
p329
aV_TreFIVE
p330
aVCParkey36
p331
aVTheHumble_21
p332
aVJCTretter
p333
aVZilla9396
p334
aVcairosantos19
p335
aVSchoBlue75
p336
aVjcasillas52
p337
aVRustyBenson35
p338
aVBgibson04
p339
aVJB_The_GREAT_68
p340
aVMilesAustinIII
p341
aVDaeshonHall
p342
aVIAF_1
p343
aVsficken1
p344
aVwardaddy_75
p345
aVLouisTrinca
p346
aVTJ_Yates
p347
aVCoryLittleton58
p348
aVKyleFriend79
p349
aVcbyndom23
p350
aVPjDawson47
p351
aVonemangang97
p352
aVT_J_E_83
p353
aVAaronDonald97
p354
aVGeorge_iloka
p355
aVWillJohnson_6
p356
aVjelanijenkins53
p357
aVKentrell_Mizzou
p358
aVJ_HILL_47
p359
aVJay_MostWanted
p360
aVTarikCohen
p361
aVseanmannion4
p362
aV52Mack_
p363
aVG_ROB73
p364
aVOl_King_Cole
p365
aVJaelenStrong
p366
aVtj_carrie
p367
aVqb10jvt
p368
aVp_scales
p369
aVdwa5hington
p370
aVzhocker18
p371
aVquinton_spain
p372
aVzasty9
p373
aVDri_Archer1
p374
aVJonDorenbos
p375
aVdlattimore
p376
aVKCook19_
p377
aVIAm_Wilder32
p378
aVJustinPugh
p379
aVdemario__davis
p380
aVelee_doubleace
p381
aVjrolawale
p382
aVMEDATAAMU74
p383
aVdebo
p384
aVMarvinJonesJr
p385
aVRyanClady
p386
aVOttomatic82
p387
aVkbfuller17
p388
aVSMJ2852
p389
aVTreyDeuce32RTR
p390
aVrbush36
p391
aVTheCDavis84
p392
aV66_Henderson
p393
aVRbjf_99
p394
aVpatmurray723
p395
aVTCrawford98
p396
aVBlake_Annen
p397
aVSeanWSpoon56
p398
aVthegob70
p399
aVwild_ian
p400
aVMoneyLynch
p401
aVJoshMcCown12
p402
aVObi_1nOnly
p403
aVdarianstewart26
p404
aVathielen19
p405
aVHunter_Henry84
p406
aVMcCain21
p407
aVLarryFitzgerald
p408
aVG_Bernard25
p409
aVCwatts64
p410
aVRodBeBalling
p411
aVCorreaKamalei
p412
aVEazyKnowsBest
p413
aVAllenRobinson
p414
aVcmshaw14
p415
aVTyrusT_71
p416
aVbosweiler17
p417
aVscoopNscore_89_
p418
aVJasonFox70
p419
aVDeAngeloHall23
p420
aVBOOMHERRON1
p421
aVRyanGMundy
p422
aVWenning10
p423
aVDominiqueJones5
p424
aVFred22Jackson
p425
aVTy_Higs19
p426
aVkerwinning_
p427
aVdbarnett25
p428
aVOwusu81
p429
aVTommyBo40
p430
aVMr_Ogunjobi
p431
aVchanjones55
p432
aVDouble_R16
p433
aVjuliuspeppers_
p434
aVKipKip_Hooray
p435
aVMarlon_Mack25
p436
aVd_davis7
p437
aVABethea41
p438
aVKennyWiggins60
p439
aVReal_JordanReed
p440
aVmyersb83
p441
aVnotoriousmax25
p442
aVHumBle_ForEver
p443
aV68INCOGNITO
p444
aVAEllington38
p445
aVTravisBenjamin3
p446
aVClaudePelon
p447
aVMJ2life
p448
aVHomesteadLB
p449
aVandydalton14
p450
aVKLM_89
p451
aVThelegendmerlyn
p452
aVDhall_Island1
p453
aVdeshaunwatson
p454
aVShermanator_42
p455
aVACES_E
p456
aVNickHaydenWI
p457
aVdarrionweems
p458
aVbweeden3
p459
aVShowtimeTate
p460
aVejbiggers
p461
aVKwon_daTRUTH
p462
aVLevineToilolo
p463
aVnickmoody53
p464
aVWhenInRome14
p465
aVspenceware11
p466
aVpatrickomameh
p467
aVJusticeIVall87
p468
aVBreauxShow24
p469
aVj_bademosi24
p470
aVImBallinNeal18
p471
aVVicBeasley3
p472
aVHarp41
p473
aVCrichton253
p474
aVGresh49
p475
aVlifesonlyperk
p476
aVBarrettAJones
p477
aVchesterchris66
p478
aVJordanLeggett16
p479
aVBrinkley86
p480
aVSack_Religious
p481
aVdfleming58
p482
aVSethTRoberts
p483
aVtyvonbranch
p484
aV97Tha_Future
p485
aVLANGI21
p486
aVMarquessWilson
p487
aVRomeoND45
p488
aVJ_Winchester41
p489
aVJoeVellanoDT
p490
aVREALPACMAN24
p491
aVAyyyeeeMoFox
p492
aVMIfedi
p493
aVJabrillPeppers
p494
aVShareeceWright
p495
aVOhGi_3Dawg3
p496
aVJimbo_Slice131
p497
aVMerci380
p498
aVoliviervernon54
p499
aVDunbar_CDB5
p500
aVMartinoTheKid
p501
aVantoniosmith94
p502
aVKcarey25
p503
aVTheSamAcho
p504
aVKickingitwith3
p505
aVAustinHoward68
p506
aVkaleo10
p507
aVAndrewFurney
p508
aVKorey_Toomer
p509
aVDuke27_
p510
aVrrsmith27
p511
aVdeshonekizer
p512
aVAndyLee4
p513
aVKeithBrownerJr
p514
aVEOlsen69
p515
aVjfreeny56
p516
aVKingTutt_chdown
p517
aVLeshaunSims
p518
aVChanceCasey9
p519
aVtbrayvol8
p520
aValynch1788
p521
aVj30playsguitar
p522
aVnickfolk2
p523
aV_CalebHolley
p524
aVwrehblidi
p525
aVzayjones11
p526
aV52JMJ
p527
aVDucasseVlad
p528
aVOb_Scho
p529
aVcboling60
p530
aVMike_Daniels76
p531
aVGarry_Gilliam
p532
aVDCobb27
p533
aVJ_Cunningham89
p534
aVJabari_Greer
p535
aVBustaAnderson
p536
aVKForttress11
p537
aVADavis1025
p538
aVPumphrey6K
p539
aVjoethomas73
p540
aVNELSON_ISLE
p541
aVbiermann71
p542
aVClintMyles69
p543
aVajgreen_18
p544
aVBournePoly11
p545
aVShaneVereen34
p546
aVjuiceman621
p547
aVS_Siliga
p548
aVcj_wentz
p549
aVdarickrogers
p550
aVblaqbadger14
p551
aVTheMarionGrice
p552
aVIBeDG_71
p553
aVJbet26
p554
aVJWilson330
p555
aVjmac___19
p556
aVSirles71_HSKR
p557
aVLouisD_26
p558
aVccarter43
p559
aVBBulaga
p560
aVowendaniels
p561
aVKendallHunter32
p562
aVtheDHB85
p563
aVMike17mo
p564
aV_tonyjefferson
p565
aVMikeGriff33
p566
aVTanner4Gentry
p567
aVIII_Flowers
p568
aVboom_king26
p569
aVLeonteCarroo1
p570
aVJUSTAB3
p571
aVJordaNorwood
p572
aVj_newsome1911
p573
aVPrinceAmukamara
p574
aVMike_Glennon
p575
aVDiddings316
p576
aVFHammond85
p577
aVBud_Dupree
p578
aVelguapo
p579
aVGrahamGano
p580
aVEastyBeasty90
p581
aVCoachWalker53
p582
aVVGreen85
p583
aVJamesDockery31
p584
aVBrentCelek
p585
aVChaseMinnifield
p586
aVjmill_70
p587
aVMattBarkley
p588
aVVanderdoes94
p589
aVJfeeva_2
p590
aVcgeathers26
p591
aVOfficialJoeJet
p592
aVJamesHanna84
p593
aVTDHAthlete
p594
aVsprinkle_memane
p595
aVZLINE48
p596
aVRicardoLockette
p597
aVMNzeocha
p598
aVcollin_mooney
p599
aVMarquetteKing
p600
aVd_donahue49
p601
aVTeco_Raww
p602
aV_HattyF
p603
aVOTeeJay_
p604
aVProsisely_22
p605
aVNotOnDuty__
p606
aVawhitworth77
p607
aV_KING205
p608
aVRandallTime
p609
aVDezBryant
p610
aVChrisLandrum46
p611
aVAnthonyCastonzo
p612
aVGator_26
p613
aVJerrellFreeman
p614
aVR_Allen86
p615
aVdreholmes81
p616
aVMikeDavisRB
p617
aVPhil_Me16
p618
aVJalilxBrown
p619
aVJbamaCriner82
p620
aVdylancole31
p621
aVMR_uNO_SeIS
p622
aV1kinglang
p623
aVB_McGee32
p624
aVMenelikWatson
p625
aVEasymoney_81
p626
aVTHenny43
p627
aVTheRealCMaTT13
p628
aVthomasmorstead
p629
aVBullDozier78
p630
aVQuice_
p631
aVJakeOvaTheWorld
p632
aVRigojio88
p633
aVb_fields2
p634
aVCoreyLiuget
p635
aVJovaisG
p636
aVmikescogilly
p637
aVGenoSmith3
p638
aVklewis23
p639
aVKBDeuce4
p640
aVthomas_duarte18
p641
aVBusterSkrine
p642
aVwil_lutz5
p643
aVDThompson004
p644
aVJakarHamilton23
p645
aVdrc_41
p646
aVMackAlexander20
p647
aVShaqDiesel_70
p648
aVOScandrick
p649
aVTG3II
p650
aV1irishchocolate
p651
aVChimChek
p652
aVMrICanDueDat
p653
aVQuanBray
p654
aVJoe_MainMixon
p655
aVBEYOND_GREATNES
p656
aVBlaineGabbert
p657
aVkzeit70
p658
aVbruhbruh601
p659
aVLAsante25
p660
aVmneal96
p661
aVBatMandervelde
p662
aVYannGetSacks91
p663
aVGoodFella_99
p664
aVEB_TXmade
p665
aVBamBamDavis51
p666
aVKVN_03
p667
aVrush_cooper
p668
aVColtMcCoy
p669
aVDeshonFoxx
p670
aVLil_Eazy_Ana_42
p671
aVJoelBitonio
p672
aVTayaustin01
p673
aVcjfenn12
p674
aVshow_case29
p675
aVTheBestBandss
p676
aVSoupLion777
p677
aVNachoLyfe
p678
aVk4coleman
p679
aVCarlBradford_
p680
aVMcCourtyTwins
p681
aVdabody52
p682
aVblindsideque
p683
aVTrujohnson2
p684
aVryansuccop
p685
aVTheMainShow_
p686
aVKOseven0
p687
aVJonBostic
p688
aVGenoSacks
p689
aVspulley77
p690
aVSamMartin_6
p691
aVdevingardnerXCI
p692
aVAlexShaggyGray
p693
aVCameronNewton
p694
aVdsherrod78
p695
aVDesmondTrufant
p696
aVBig_Tah47
p697
aVAesj88
p698
aVTheDreamKasim
p699
aVPrestonSmith94
p700
aVJRAN_1
p701
aVrak98
p702
aVbhoyer7
p703
aVcliffavril
p704
aVEJManuel3
p705
aVD_Rivers11
p706
aV_nigelking_
p707
aVChauxDown
p708
aVGavinEscobar89
p709
aVjgray_ND25
p710
aVAlex_Armah
p711
aVLbow70
p712
aVjaydiggla4
p713
aVBrennenBeyer
p714
aVPro_Hunt58
p715
aVmccrayd_10
p716
aVDeandrewWhite
p717
aV68dougfree
p718
aVIsaiahCrowell34
p719
aVbigbeej97
p720
aVagentdre0019
p721
aVCjsmith_6
p722
aVT_Fede
p723
aVQbsacked
p724
aVEricKendricks54
p725
aVFoggWith2Gz
p726
aVChickillo56
p727
aVRenfrowJustin
p728
aVSHANEWYNN4
p729
aVBigsmoot_94
p730
aVjoeyivie
p731
aVJBrissett12
p732
aVLinsley71
p733
aVrepdbympm
p734
aVpapa_yank
p735
aVHarrisNOFLYZONE
p736
aVBTHOM63_100
p737
aVRashaadCoward
p738
aVkdemens25
p739
aVDavidParry58
p740
aVCotySense
p741
aVBenny_b0y10
p742
aVAnchorManAustin
p743
aVJHughes3rd
p744
aVJohnno_uc3
p745
aVhosley_jayron
p746
aVHenMel
p747
aVMichael31Thomas
p748
aVJosh_Lenz
p749
aVRyanKerrigan91
p750
aVRasIDowling
p751
aVLetroyGuion98
p752
aVWallace17_daKid
p753
aVChadkelly_6
p754
aVcel_jensen89
p755
aVBIG_DADDY_K74
p756
aVcharleslenojr72
p757
aVJourdanJD
p758
aVtimlelito68
p759
aVVincentBrown86
p760
aVC__Robertson
p761
aVKonyEaly94
p762
aVTheAce410
p763
aVmmurphy6
p764
aVarikarmstead
p765
aVkytandy
p766
aVKevinGraf77
p767
aVJLeRibeus
p768
aVmerrell92
p769
aVborn_ambition79
p770
aVJBullard90
p771
aVCame_Along_Way
p772
aVGhostBoysENT
p773
aVTeamVic
p774
aVRobert_D13
p775
aVSolo_Sink2
p776
aV64jdm
p777
aVbynestime56
p778
aVbrian_peters10
p779
aVLozoMauldinIV
p780
aVbigplayhall_A2N
p781
aVtwo_dice
p782
aVDPo8
p783
aVsamysosa_3
p784
aVcjandersonb22
p785
aVjaiquawnjarrett
p786
aVBFlowers24
p787
aVShaqThompson_7
p788
aVBullough40
p789
aVDaRealJayProsch
p790
aVTanard_Jackson
p791
aVg_hodges6
p792
aVrodstreater80
p793
aVCJDavisOLP
p794
aV_BONEHEAD_tez_
p795
aVSandersCommings
p796
aVArmonBinns
p797
aVTrey_Zero
p798
aVisaacwhitney8
p799
aVElijahQualls11
p800
aVdisGROYer79
p801
aVMoClaiborne
p802
aVJeremyHarris_31
p803
aVKyleRudolph82
p804
aVJeremiahRatliff
p805
aVMalikHooker24
p806
aVBruceElling10
p807
aVjmarcuswebb
p808
aVKeFu11er
p809
aVmikepierce_97
p810
aVChrisJohnson28
p811
aVD_FUNCH
p812
aVPic6Darb
p813
aVK_SMITH31
p814
aVHolloMan21
p815
aVmackhollins
p816
aVrockorocky
p817
aVDomataPeko
p818
aVZillaMane41
p819
aVJuice_Supreme
p820
aVGGerhart52
p821
aVTrent5Taylor
p822
aVMikeDeVito70
p823
aVcheetah
p824
aVJakeBequette91
p825
aVAnderson_365
p826
aVLoganThomasSr_6
p827
aVjeffdriskel
p828
aVAlexAnzalone47
p829
aVLiiive_55
p830
aVspeeno25
p831
aVKerryhyderJR
p832
aVmarcuspeters
p833
aVTashawnBower
p834
aVColt3FIVE
p835
aVDedeTHEGreat11
p836
aVNickOleary35
p837
aVAnthony_Fasano
p838
aVAlvern_1
p839
aVmaiava_five0
p840
aVPatDiMarco42
p841
aVThaBestUNO
p842
aVTheCoreyColeman
p843
aVTMurphy_93
p844
aVJharpthe2nd
p845
aVJBanks_27
p846
aVMtrubisky10
p847
aVRoy_Miller_III
p848
aVBlantonRobert
p849
aVJungleBoi_Swagg
p850
aVDeAngeloRB
p851
aVGMILLI99
p852
aVStrap_Ent
p853
aVMarQueisG
p854
aVrichardash94
p855
aVJBush
p856
aVkj_brent
p857
aVRealJimmySmith
p858
aVRayDrew47
p859
aVMicanorLRegis
p860
aVchris_clemons30
p861
aVMarcedesLewis89
p862
aVReshardCliett
p863
aVJamesConner_
p864
aVAustin_Pettis
p865
aVKarlosdansby56
p866
aVZiggy_Ansah
p867
aVGrindin_59
p868
aVTrevorSiemian
p869
aVBease11
p870
aVPYSNGR
p871
aVMarcusDKemp
p872
aVjuliojones_11
p873
aVMartysaurusRex
p874
aVadamhumphries13
p875
aVUnderrated_Dom
p876
aVDARRYLSHARPTON
p877
aVThaRealKillaCam
p878
aV1on1wattsisland
p879
aVlplado
p880
aVJOHNSON35BOY
p881
aVCBryant198
p882
aVJawuanJames70
p883
aVDewey_MAC
p884
aVANU_NIKE22
p885
aVcasekeenum7
p886
aVEwolff28
p887
aVthejaylonsmith
p888
aVkhuber10
p889
aVJavonteeHerndon
p890
aVJhagen27
p891
aVZDysert4
p892
aV10AJMcCarron
p893
aVgiantspathanlon
p894
aVaj_hendy
p895
aVDev_Still71
p896
aVJaYbOi225
p897
aVascedbyme
p898
aVKing55Tez
p899
aVAnthonyBarr
p900
aVFatrob32
p901
aVPeteRobertson10
p902
aVBrian40Leonard
p903
aVD_Perryman52
p904
aVDRICH_26
p905
aVTheRealDoubleMs
p906
aVKold91
p907
aVChadSlade62
p908
aVtonycarter904
p909
aVTownsJeremy
p910
aVthenastynate54
p911
aVAhmadBrooks55
p912
aVtj_bchillen
p913
aVPb25Peyton
p914
aVNick_Fairley251
p915
aVjoshkline64
p916
aVtwalker337
p917
aVDBak69
p918
aVJAnkrah
p919
aVm_hull4943
p920
aVBBarden81
p921
aVCurtisLofton50
p922
aVMrGetFlee99
p923
aVgarrisonsanborn
p924
aVCurtisSamuel4__
p925
aVrandybullock28
p926
aVD_kilgo97
p927
aVunhsmitty90
p928
aVbrentqvale
p929
aVKroft86
p930
aVMarkIngram22
p931
aVMr_Poppa_6
p932
aVJimmyG_10
p933
aVSherrickM
p934
aVB_Jax2
p935
aVflyyCole_x4
p936
aVMichaelMFloyd
p937
aVCharleyHughlett
p938
aVEjbibbsGLA
p939
aVMMorse61
p940
aVJordanRoos64
p941
aVMikeNugent85
p942
aVbrettjones69
p943
aVJames_Develin
p944
aVEJackson_4
p945
aVRikester13
p946
aVayeseeme
p947
aVMaxUnger60
p948
aVUjohn1John
p949
aVderekcarrqb
p950
aVnuevexted
p951
aVjonbeason
p952
aVfabianmoreau10
p953
aVjakerodgersewu
p954
aVNateEbner
p955
aVBenBass79
p956
aVbbersin10
p957
aVkwon
p958
aVkinggatz2
p959
aVJameelMcClain
p960
aVAColvin_22
p961
aVjustinbrown19
p962
aVdbass91
p963
aVchrisclemons91
p964
aVJayMy_31
p965
aVdharm32
p966
aVS_Anderson89
p967
aVJ_7TRE_E
p968
aVOmarBolden
p969
aVCole_Manhart
p970
aVBFame24
p971
aVleonardwilliams
p972
aVMattSlausonNFL
p973
aVfrankalex90
p974
aV98ChrisSmith
p975
aVArtavisScott
p976
aVcrosbykicks2
p977
aVHuey_85
p978
aVonlyoneSP
p979
aVCharcandrick26
p980
aVZoBot_45
p981
aVHeezy2Liv5
p982
aVBelegendary19
p983
aVBadgeTooHeavy
p984
aVJoeReitz76
p985
aVterencenewman
p986
aVJonRyan9
p987
aVCam_I_Am81
p988
aVNilesP_
p989
aVhaha_cd6
p990
aVMathieu_Era
p991
aVMackB73
p992
aVjcharles25
p993
aV_CurtisGrant14
p994
aVJayRoss_2
p995
aVMSU_LEEK4
p996
aVDuaneBrown76
p997
aVTuckbeamer
p998
aVstonecoldjones_
p999
aVaaronmurray11
p1000
aVkillabeaton
p1001
aVbmosley_75
p1002
aVmrkevinwhite
p1003
aVJNEW_11
p1004
aVBryce_harris79
p1005
aVJOEL9ONE
p1006
aVscorindorin
p1007
aVsuperblair
p1008
aV6_Speedo
p1009
aVmr_rockytop
p1010
aVCameronLynch38
p1011
aVKrisDurham16
p1012
aVpoppaC01
p1013
aVLetItReign52
p1014
aVRmelvin30
p1015
aVjohng7779
p1016
aVBig_Mady55
p1017
aVCoreyL55
p1018
aVJaredOdrick
p1019
aVWSmallwood28
p1020
aVgbg_18
p1021
aVMrInkredibleXII
p1022
aVCHairston75
p1023
aVJay_wright4
p1024
aV_GeoJohns
p1025
aVKam_canaday57
p1026
aVEricKush64
p1027
aVVincentTJackson
p1028
aVGermainX1
p1029
aVStevanRidley
p1030
aVIkeIgbinosun
p1031
aVSam_Koch4
p1032
aVdmolk
p1033
aVtony_amarachi
p1034
aVSpeedKillz9
p1035
aVEthanPocic
p1036
aVWalt_Aikens
p1037
aVslotgod23
p1038
aVCam_Johnson59
p1039
aVSquareboy92
p1040
aVJustin_Trattou
p1041
aVHowardWilson_6
p1042
aViamDeShawnW
p1043
aVTonyMcDaniel78
p1044
aVRichieBrockel
p1045
aVGJKinne
p1046
aVgday85
p1047
aVMrHillman2U
p1048
aVKB31_Era
p1049
aVALevine41
p1050
aV_MoneyBo_
p1051
aVHaloti_Ngata92
p1052
aVBudda03
p1053
aVTheSchoGoesOn53
p1054
aVmalliciahg
p1055
aVnickboyle86
p1056
aVkeithkelsey55
p1057
aVdalvincook
p1058
aVLanceLouis60
p1059
aVBrittanGolden
p1060
aVMayo_Man_3
p1061
aVJack_Conklin78
p1062
aVJacobyFord12
p1063
aVTambaHali91
p1064
aVdextermccluster
p1065
aVrealdbronson
p1066
aVsatutu19
p1067
aVSteevie_Mo
p1068
aVgbolles72
p1069
aVDB_5trey
p1070
aVTJLang70
p1071
aVCALLME_WOOD
p1072
aVTheRealJJWilcox
p1073
aVjosh_dobbs1
p1074
aVT_Yeldon
p1075
aVMikebuc19
p1076
aVBig_Fish79
p1077
aVKeenan13Allen
p1078
aVChaseDaniel
p1079
aVWhoDAtBeezy
p1080
aV50ErinHenderson
p1081
aVTylerHoover91
p1082
aVDrewQuarless
p1083
aVcamjordan94
p1084
aVJayCar_11
p1085
aV_CRADICULOUS
p1086
aVcotcheryfoundat
p1087
aVTheUnderDog_64
p1088
aVJK_Kelley
p1089
aVTwoStarWade
p1090
aVGreat_Nate9
p1091
aVDCizzle7
p1092
aVTAClemmings_90
p1093
aVKamChancellor
p1094
aVOBJ_3
p1095
aVBenGarland63
p1096
aVjudav70
p1097
aVMatt_Johnson37
p1098
aVjonallen95
p1099
aVMMoneymalc9
p1100
aV_numberthreeRB
p1101
aVclark7365
p1102
aVJOSH_GORDONXII
p1103
aV_BIGDAN98
p1104
aVRashadJennings
p1105
aVDJG24_7
p1106
aVsenmarks
p1107
aVDCarter_2
p1108
aVDukeJohnson_8
p1109
aVSheldonDay_91
p1110
aVCodyFajardo17
p1111
aVafluellen96
p1112
aVAaronRodgers12
p1113
aVCALiboy4
p1114
aVMikeCamp_12
p1115
aVmarlon_humphrey
p1116
aVC_Harnish
p1117
aVZettel98
p1118
aVCullenJenkins
p1119
aVD_SmithFS
p1120
aVJMcc63
p1121
aVCaryWilliams26
p1122
aVMo_12_Sanu
p1123
aViamSB3
p1124
aVCoachChuka
p1125
aVStrongaLonga3
p1126
aVJay_Elliott15
p1127
aVv_alex74
p1128
aVCaylinHauptmann
p1129
aVEvanEngram
p1130
aVAqibTalib21
p1131
aVEliApple13
p1132
aV1kendallwright
p1133
aVGoMikeMartin
p1134
aVTravarisCadet39
p1135
aVBryanBraman56
p1136
aVbamasteen61
p1137
aVPresleyDeAndre
p1138
aVNb_Eight5
p1139
aVMrClutch_83
p1140
aVGoldenAl
p1141
aVDennisKelly67
p1142
aVbrambo18
p1143
aVMalcolmJarod
p1144
aVTimMasthay
p1145
aVSpotliteUno
p1146
aVmakeitlookeasyy
p1147
aVfcoxx_91
p1148
aVTreBos10
p1149
aVjoshuamalone03
p1150
aV4stillRunning
p1151
aVBradRoby_1
p1152
aVAJaClay
p1153
aVBrad_B21
p1154
aVDR3AM56
p1155
aVJuliusAWarmsley
p1156
aVMNewhouse73
p1157
aVbigj9797
p1158
aVdeonbushlive2
p1159
aVtlong89
p1160
aVKmint_46
p1161
aVthEMANacho
p1162
aVChad_Hansen6
p1163
aV26Int_Hit
p1164
aVDWill_76
p1165
aVBrown_2_TheBone
p1166
aVthemarkuskuhn
p1167
aVBrianFolkerts
p1168
aVKeanu_Neal
p1169
aVWillie_Snead4G
p1170
aVcamclear_
p1171
aVcatcenter66
p1172
aVjoeyiosefa
p1173
aVddockett
p1174
aVyofavSnack
p1175
aV7PayneTrain
p1176
aVDerrickShelbyII
p1177
aVKhas_Greene20
p1178
aVFATRATWTDACHEES
p1179
aVallenboi39
p1180
aVlewis_flock72
p1181
aVCraigDahl43
p1182
aVmatthaack21
p1183
aVdizzydayes_21
p1184
aVdrewkaser
p1185
aVHagerBryce
p1186
aVninjafast22
p1187
aVDangeRussWilson
p1188
aVDaymo03
p1189
aVDezBriscoe89
p1190
aVHANK_it56
p1191
aVFreetownsfinest
p1192
aVwillpoehls
p1193
aVHayesPullard
p1194
aVJenks_26
p1195
aVRyan_Nassib
p1196
aVSEYMONSTER62
p1197
aVAndrewDonnal
p1198
aVPhillyWill11
p1199
aVcdylanwynn
p1200
aVGarrisonSmith56
p1201
aVcordyglenn77
p1202
aVEliHarold_
p1203
aVDOCnation_7
p1204
aVj2whitehead
p1205
aVAsiataFive4
p1206
aVabrown_jr
p1207
aVDestinyVaeao
p1208
aVQueCeasar
p1209
aVThedthomas64
p1210
aVdrebrown35
p1211
aVCedPeerman30
p1212
aVHighRizer22
p1213
aVZachBrown_55
p1214
aVPrestonParker87
p1215
aVZBNFL
p1216
aVTh11ggy
p1217
aVHaason7Reddick
p1218
aVDSwan7
p1219
aVBishopSankey
p1220
aVChidobeAwuzie
p1221
aVTruthh4
p1222
aVTress_Way
p1223
aVBallOut_96
p1224
aV1Tyvis
p1225
aVCecilShortsIII
p1226
aVWill_Fuller7
p1227
aVcammalveaux
p1228
aVYYBAQB
p1229
aVRGIII
p1230
aVknowshonmoreno
p1231
aVDolaOcho
p1232
aVONLY_D_1
p1233
aVTaylorHart66
p1234
aVAllenBradford21
p1235
aVJeffAllen71
p1236
aV3Spence1
p1237
aVZBHodges
p1238
aVNickyWilz13
p1239
aVDrizzyDrezz_6
p1240
aVDaddy_Mar
p1241
aVJalinMarshall
p1242
aVRiDQulous_98
p1243
aVTheAdamsEra
p1244
aVCortez_Allen
p1245
aVJay_FiveSix
p1246
aVJHouston50
p1247
aVAJFrancis410
p1248
aVJ_Walls
p1249
aVDarrenSproles
p1250
aVDATS_KELLZOCHO
p1251
aVBarclay_64
p1252
aVbrandincooks
p1253
aVErikAustell
p1254
aVEricDecker87
p1255
aVKeshawnMartin82
p1256
aVchackenberg1
p1257
aVccarson_32
p1258
aVDannyAmendola
p1259
aVtbowser23
p1260
aV_Go_DJ_
p1261
aVKeivarae1
p1262
aVRoberts_52
p1263
aVRom34Smith
p1264
aVBGhee
p1265
aVGalambos47
p1266
aVRobertHughesND
p1267
aVSebVollmer
p1268
aVDenariusMoore
p1269
aVbrandondoughty
p1270
aVTakk
p1271
aVVernonDavis85
p1272
aVChrisHogan_15
p1273
aVThabear4
p1274
aVWitz76
p1275
aVIsaacrochell90
p1276
aVJustJoshin90
p1277
aVslong_61
p1278
aVPhilgood50
p1279
aVvontaedavis
p1280
aVclownejd
p1281
aVJasperhitman54
p1282
aVHupernikao9s
p1283
aVkelcy_quarles
p1284
aVJoshLambo
p1285
aVDLeeMG8
p1286
aVrun__cmc
p1287
aVcarllawson55
p1288
aVAdoreeKnows
p1289
aVAustinJ40
p1290
aVPug_Life76
p1291
aVGeorgiaBoi25
p1292
aVadamshaheen3
p1293
aVTheRealVRVJ
p1294
aVTakeover_Tuggle
p1295
aVTheRealJT3
p1296
aVKenrickEllis
p1297
aVOlasWorld70
p1298
aV_audi8
p1299
aVKendallLangford
p1300
aVsoar44
p1301
aVfantastik_willo
p1302
aVKennyVaccaro4
p1303
aVAJBOUYE21
p1304
aVbig_paint
p1305
aVJaws_47
p1306
aVLaAdrianWaddle
p1307
aVpinion92
p1308
aVDevonKennard
p1309
aVMrDanWilliams
p1310
aVTyrodTaylor
p1311
aVBillingsAndrew
p1312
aVSwaggerVance99
p1313
aVTheeCount2
p1314
aVRileyTDixon92
p1315
aViammikemitchell
p1316
aVJHowardx24
p1317
aVThomasDavisSDTM
p1318
aVLeonard90Flo
p1319
aVKristjan90
p1320
aVgarybarnidge
p1321
aVJohnCUrschel
p1322
aVAkeemSpence
p1323
aVCoach_JKrause
p1324
aVerikalexander41
p1325
aVDaniel_Brown10
p1326
aVCHenderson_2
p1327
aVlanetaylor65
p1328
aVzeus30hightower
p1329
aVJaredAllen69
p1330
aVSam_Barrington_
p1331
aVdrewbrees
p1332
aVnelsonagholor
p1333
aVmcckshea
p1334
aVMr_Matthews_
p1335
aV13igDuke
p1336
aVi_Serve24
p1337
aVShaq_Lawson90
p1338
aVJoshuaCarraway
p1339
aVMikeBuke99
p1340
aVelflein65
p1341
aVRBrex2022
p1342
aVSpmcgrath123
p1343
aVJuiceCheck44
p1344
aVbrodinemr
p1345
aVVince_Mayle
p1346
aVJustinColeman27
p1347
aVA_Train_92
p1348
aVJKovacs32
p1349
aVDSmith_76
p1350
aVhollister_jacob
p1351
aVGods_Exertion98
p1352
aVClifGeathers
p1353
aVe_Momah
p1354
aVChannel75live
p1355
aVbubbahawk10
p1356
aVT_Garvin28
p1357
aVbigsmooth61
p1358
aVkraigurbik
p1359
aVjphillips8983
p1360
aVGJenk10
p1361
aVTevrinBrandon6
p1362
aVbuttkicker7
p1363
aVwisehog94
p1364
aVCampbell93
p1365
aVBdbam4_
p1366
aVAndrewNorwell
p1367
aVrealbuckallen
p1368
aVbwing38
p1369
aVlawrencetimmons
p1370
aVMatt_Bryant3
p1371
aVJROB_2one
p1372
aVMarkHerzlich
p1373
aVItsChrisHarper
p1374
aVtylereifert
p1375
aVKapriBibbs
p1376
aVkingcole45
p1377
aVJayTrain
p1378
aVVinnyRey
p1379
aVdarealmike_dub
p1380
aVj_bushrod7475
p1381
aVDrhaney_65
p1382
aVMichaelKoenen
p1383
aVumdsfinest21
p1384
aVthekidmcmanus
p1385
aVMFlowers59
p1386
aVhungry4gr8tness
p1387
aVRob_Blanch
p1388
aVR_Goforth3
p1389
aVSweetTeaWillie
p1390
aVRocketRich30
p1391
aVDangerfield__
p1392
aVRSherman_25
p1393
aVDATBLACKMOMBA13
p1394
aVkeglar317
p1395
aVabbrecadabra
p1396
aVD_Sims80
p1397
aVCodyKessler6
p1398
aVAndyJanovich
p1399
aVAB84
p1400
aVnathan_isles
p1401
aV34Jerm
p1402
aVStingRay56
p1403
aVpkruger99
p1404
aVJASully65
p1405
aVBostick11
p1406
aVPaxtonLynch
p1407
aVArtj97
p1408
aV_DAlexander1
p1409
aVTyler_Polumbus
p1410
aVAndreRoberts
p1411
aVTreJackson54
p1412
aVgeorgeatk3
p1413
aVGragg80
p1414
aVBraxtonMiller5
p1415
aVLilMade21
p1416
aVNatePeterman
p1417
aVcjboard8
p1418
aVJoshScobee10
p1419
aVMylesJack
p1420
aVdbook23
p1421
aVjmattjmattjmatt
p1422
aVBailey_67
p1423
aVTyMontgomery2
p1424
aVWizardOfBoz09
p1425
aVChrisThompson_4
p1426
aVJurrellc
p1427
aVAJJenkins15
p1428
aVAldrickRobinson
p1429
aVMr_Cooper860
p1430
aVBrianLeonhardt
p1431
aVCodyLatimer14
p1432
aVMHuff28
p1433
aVbgedeon42
p1434
aVDonteWhitner
p1435
aVjmthegreat
p1436
aViammsuzy
p1437
aVDalvinTomlinson
p1438
aVtoddherremans
p1439
aVHenryAnderson91
p1440
aVMarcusGilbert88
p1441
aVJHarrison_72
p1442
aVcivilSAVAGE1
p1443
aVRussellOkung
p1444
aVMebane92
p1445
aVstefondiggs
p1446
aVKay_BlackSimba
p1447
aVPierreGarcon
p1448
aVnoceilings27
p1449
aVTreyBurton8
p1450
aVb_borders
p1451
aVMOOCHIE048
p1452
aVJJames18_
p1453
aVjtheaps9
p1454
aVdukephilon_07
p1455
aV36SLY36
p1456
aVdj_214
p1457
aVking_green89
p1458
aVWillieD_effect
p1459
aVTerranceWill2
p1460
aVShowTimeSheed
p1461
aVJROUNDS25
p1462
aVHeartbreak_mea
p1463
aVUno_Dos_Tre3
p1464
aVAkronsVO_21
p1465
aVDeBrown97
p1466
aVDSearcy_21
p1467
aVdc_wilson954
p1468
aVMickey_Shuler
p1469
aVJohnnyMass94
p1470
aVmarkusgolden
p1471
aVWhoIsJoplo
p1472
aVShilique89
p1473
aVKBNelson17
p1474
aVJonathan_Jones2
p1475
aVEricRowe32
p1476
aVSylwil92
p1477
aVM_Darr
p1478
aVDmoeSwagg23
p1479
aVFredoSauce
p1480
aVdee_mount
p1481
aVEdmondGates
p1482
aVtylerervin_
p1483
aVPlutoCarson
p1484
aVKSTiLLS
p1485
aVdonavon76
p1486
aV49foyamind49
p1487
aVreshadjones9
p1488
aVLouisVasquez65
p1489
aVCaptainHooks203
p1490
aVMarcusWilliams
p1491
aVKDx32
p1492
aVjaycash_16
p1493
aVBB_HulkSmash
p1494
aVAustinHooper18
p1495
aVBucky757
p1496
aVNembotStephane
p1497
aVneversleepon13
p1498
aVrobertwoods
p1499
aVQuez_G
p1500
aVUnitedSt8Of_Ham
p1501
aVTaiwanJonesNFL
p1502
aVcaseykreiter
p1503
aVcedison_
p1504
aVBrianDixon_2
p1505
aVSuccessfulQuon
p1506
aVLavonteDavid54
p1507
aVmicah_hyde
p1508
aVN_cap11
p1509
aVTooLoose26
p1510
aVJoeFlacco
p1511
aVMattHazel_
p1512
aVJeremyMcNichols
p1513
aVDezzyJ_42
p1514
aVLeeWard36
p1515
aVJordanSimmons68
p1516
aVcbevins11
p1517
aVellerbe59
p1518
aVB_BENNETT03
p1519
aVFozzyWhitt
p1520
aVIamTJ_Jones
p1521
aVLanejohnson65
p1522
aVGriffin_11
p1523
aVrudejude5
p1524
aV__bELIeve17
p1525
aVtrai_turner
p1526
aVConnor_Cook03
p1527
aVMichaelWilhoite
p1528
aVBrandonBoykin2
p1529
aVHeyItsJholsey
p1530
aVcallmequi_
p1531
aVJJOE2424
p1532
aVrd32_era
p1533
aVjordan_dewalt
p1534
aVslickwynn94
p1535
aVTyVarga
p1536
aVBigSpurts98
p1537
aVsamajp32
p1538
aVBooof38
p1539
aVericksona86
p1540
aVGradyJarrett
p1541
aVDerekWatt34
p1542
aVhenbeeney
p1543
aVEddiep_35
p1544
aVkayvonwebster
p1545
aVgeoffschwartz
p1546
aVbm1157
p1547
aVDeVanteParker11
p1548
aVDDawkins66
p1549
aVGeneo_G
p1550
aVeswoope21
p1551
aVbbrooks_79
p1552
aVdrm_12
p1553
aVtpolamalu
p1554
aVJordanMills_67
p1555
aVTYHilton13
p1556
aVNeal_Sterling
p1557
aVEversonGriffen
p1558
aVKy1eLong
p1559
aV7tjackson
p1560
aVEdelman11
p1561
aVAlexTanney
p1562
aVMylesLGarrett
p1563
aVMallyCat_28
p1564
aVRickySealsJones
p1565
aVjfelton45
p1566
aVMikeLeach82
p1567
aVEddieGoldman
p1568
aVmurph918
p1569
aVPharaohsDream
p1570
aVJ_Shirk1030
p1571
aVStuntman1429
p1572
aVHenryHynoski
p1573
aVbcoyle50
p1574
aVjalenramsey
p1575
aVRicardo37Allen
p1576
aVafreeman86
p1577
aVAJohn15
p1578
aVChaseReynolds34
p1579
aVcujo_51
p1580
aVRobertMathis98
p1581
aVTorreySmithWR
p1582
aV_fournette
p1583
aVAShep79
p1584
aVCarlos_Dunlap
p1585
aVKey_Garrett1
p1586
aVCodyDavis
p1587
aVelipenny_22
p1588
aVMikeCatapano77
p1589
aVk_grugierhill
p1590
aVCooperKupp
p1591
aVMatt_Skura62
p1592
aVrcobb18
p1593
aVreilly0949
p1594
aVepinkins27
p1595
aV_teddy_k
p1596
aV__AWalkJr
p1597
aVMartezWilson773
p1598
aVtbond252
p1599
aVgregolsen88
p1600
aVDahop5
p1601
aVjcumberland87
p1602
aVTHopkins75
p1603
aVD_Brut30
p1604
aVColinHolba
p1605
aVMB_uno4
p1606
aVTrentW71
p1607
aVThaSilentOne11
p1608
aVjackmewhort
p1609
aVLach_Edwards49
p1610
aVBrice_Butler
p1611
aVbgradkowski5
p1612
aVAndrewGleichert
p1613
aVrichiebrown39
p1614
aVGuttaManRick
p1615
aVShakPhillips11
p1616
aVdoylejack84
p1617
aVjmcc65
p1618
aVJamilDouglas_
p1619
aVLukeStocker88
p1620
aVP_Lewis30
p1621
aVCameronLynch50
p1622
aVA1hurns
p1623
aVMac_BZ
p1624
aVTDSemisch85
p1625
aVSamMoi91
p1626
aVCamHeyward
p1627
aVmowilkerson
p1628
aVboutdat_23
p1629
aVmachine_marlowe
p1630
aVCoopTaylor30
p1631
aVCarmelle_P
p1632
aVRG80_
p1633
aV_gconley8
p1634
aVAIR_CORN23
p1635
aVMGolicJR57
p1636
aVceeflashpee84
p1637
aVM_White03
p1638
aVKennethMFarrow
p1639
aVterrellwatson33
p1640
aVTyeSmithCB
p1641
aVcontbarth
p1642
aVMattyRob40
p1643
aVTerrellePryor
p1644
aVZoomHerron
p1645
aVTony_Lippett14
p1646
aVRevis24
p1647
aVRIPGADGETT
p1648
aVCaliboy_95
p1649
aVLandryJones12
p1650
aVSmashAmos38
p1651
aVbuddabaker32
p1652
aVgeorgeselvie
p1653
aVDAButler56
p1654
aVIamxavienhoward
p1655
aVLiedtke59
p1656
aVmgilchr
p1657
aVBCopeLB
p1658
aVBree2Land6
p1659
aVReggieBush
p1660
aVMitch64psu
p1661
aVLWillson_82
p1662
aVMrSupeR7PoWieB
p1663
aVSdotTerrell
p1664
aVDamontaekazee
p1665
aVLegerDouzable
p1666
aVHenocMuamba
p1667
aVnkwiatkoski27
p1668
aVchris11au
p1669
aVMatt_Blanchard_
p1670
aVTGdadon1
p1671
aVsuccessfulj7_
p1672
aVGosderCherilus
p1673
aVCullyinthehouse
p1674
aVDavidQberry
p1675
aVToddythomas8
p1676
aVTrenchwork94
p1677
aVsterl_shep3
p1678
aVivory33
p1679
aVcbakerswaggy
p1680
aVKOforPrez
p1681
aVUWdwayne12
p1682
aVDC_CHILLIN_8
p1683
aV1_900_ayersjr
p1684
aVAJCann60
p1685
aVhoneythunder14
p1686
aVjbbigbear
p1687
aVbjwint67
p1688
aVb_petty14
p1689
aVA_kamara6
p1690
aVda_king_son18
p1691
aVOOIbro
p1692
aVbboyko69
p1693
aVJacobTamme
p1694
aVBig_Mountain77
p1695
aVfullalove87
p1696
aVTHE_BIZ_SHOW
p1697
aVjohntimu_10
p1698
aVAudiesel1
p1699
aVAminiSilatolu
p1700
aVMVPWard
p1701
aVadamvinatieri
p1702
aVKlingKong70
p1703
aVRobGronkowski
p1704
aVimthatnike
p1705
aVColinCole91
p1706
aVCarterBykowski
p1707
aVAndrusPeat
p1708
aVJosephThuney
p1709
aV1REGGIEDAVIS
p1710
aVricky_aliifua
p1711
aVAJelks_50
p1712
aVBrian_Robison
p1713
aVAFRO_THUNDER80
p1714
aVbigyoungin76
p1715
aViThinkIsee12
p1716
aVurbanlegend96
p1717
aVscottysimes83
p1718
aVRossScheuerman
p1719
aVD_Newt75
p1720
aVTajhB10
p1721
aVthatLGUY
p1722
aVajwilliams23
p1723
aVDon59Wayne
p1724
aVTheRealMarcWill
p1725
aVtmcdonaldjr
p1726
aVawashington_92
p1727
aVJ_Fish231
p1728
aVMeansBusiness56
p1729
aVKingHenry_2
p1730
aVBenHeenan65
p1731
aVMrBig434
p1732
aVe_harris_31
p1733
aVZaireanderson13
p1734
aVstevebo72
p1735
aVGriffWhalen
p1736
aVI_Owe_Deji
p1737
aVBennyCunningham
p1738
aVThorntonCedric
p1739
aVBig_Park79
p1740
aVC_Ne7son
p1741
aVCyJones_
p1742
aV55getlive
p1743
aV_TJWatt
p1744
aVweddlesbeard
p1745
aVTEXAGSDB7
p1746
aVDDennard21
p1747
aVTelvinSmith_22
p1748
aVIfeadiOdenigbo
p1749
aVjefflocke9
p1750
aVAkeem_Ayers
p1751
aVBrianBrown_18
p1752
aVdekodawatson57
p1753
aVDariusJennings_
p1754
aVGabeIkard
p1755
aVBMaxx41
p1756
aVjalstonfowler
p1757
aVCamLaw10
p1758
aVTeamHolmes7256
p1759
aVAPsixseven
p1760
aVQuincyEnunwa
p1761
aVLG_Blount
p1762
aVelJEFEcoat44
p1763
aVVeldheer68
p1764
aVTreWhite16
p1765
aVdanny__woodhead
p1766
aVkhoagie8
p1767
aVB_Wash72
p1768
aVJ_Harrison51
p1769
aVJolonnDunbar
p1770
aVcwhitey6
p1771
aV_official_73
p1772
aVGreatGlasby
p1773
aVTheboss_8
p1774
aVDHenderson31
p1775
aVTDLockett12
p1776
aVcjuzomah81
p1777
aVESanders_10
p1778
aVDHunt94_TX
p1779
aVKashifMoore
p1780
aVdeanteburton8
p1781
aVFreakMagic2
p1782
aVKareemhunt7
p1783
aVcsims34
p1784
aVShowtime1NJ
p1785
aVpierre_desir
p1786
aVBGoode61
p1787
aVBrooksreed50
p1788
aV_ThaJizzleMan
p1789
aVChesterRogers80
p1790
aVCarlifTaylor63
p1791
aV225boy71
p1792
aVJustHaveUno
p1793
aVtp_dagoer
p1794
aVBlasian_Kiddd
p1795
aVCole_Croston
p1796
aVTFat96
p1797
aVAll_Goode53
p1798
aVMcKinzy30
p1799
aVAmobiOkoye91
p1800
aVshowtimezo9
p1801
aVJ_Davis_40
p1802
aVEarlMitchell90
p1803
aVNBowman53
p1804
aVjahreid76
p1805
aVdeonebucannon20
p1806
aVMattIoannidis
p1807
aVflashg88dwin
p1808
aVCassiusVaughn
p1809
aVkleenstandout
p1810
aV__taylordecker
p1811
aVColonel82
p1812
aVcwest_55
p1813
aVahkello
p1814
aVschiltzy33
p1815
aVNickSundberg
p1816
aVRQuinn94
p1817
aVBossGreen256
p1818
aVJ_Trout63
p1819
aV99JesseDavis
p1820
aVsalaams_from_68
p1821
aVMelvinIngram
p1822
aVZSTACY_
p1823
aVkwhimp545
p1824
aVKWilson20
p1825
aVBoBelieves
p1826
aVDavid_Njoku80
p1827
aVTerranceWestBWI
p1828
aVsneakyneas
p1829
aVLMckelvin21
p1830
aVJ_poyer21
p1831
aVkelvinbenjamin
p1832
aVA49K
p1833
aVBEECoxx
p1834
aVzachsudfeld
p1835
aVDanielAdongo7
p1836
aVJWills_28
p1837
aVwilliams_maxx
p1838
aVnino9brown
p1839
aVdrewstanton
p1840
aVTrevonColey
p1841
aV_michaeltyson_
p1842
aVBrynRenner
p1843
aVLataviusM
p1844
aVJakeButtTE
p1845
aVPrime_Perk_24
p1846
aVChrisCook_22
p1847
aVAntwaunWoods_
p1848
aVAir4Cole
p1849
aVSwitz
p1850
aVKingCrab15
p1851
aVR0bG0lden
p1852
aVTJ_Spartan34
p1853
aVCalebBenenoch
p1854
aVDROG_UNO
p1855
aVjustfollowZae23
p1856
aVj_collins91
p1857
aVMrHyde_24
p1858
aVreemthedream_95
p1859
aVClarkBoy74
p1860
aVDougMartin22
p1861
aVPatrickChung23
p1862
aVNateBoyer37
p1863
aVmario_alford
p1864
aVBreadWinner084
p1865
aVRandyGregory_4
p1866
aVJoelDreessen
p1867
aVtae15adams
p1868
aVTylerLarsen58
p1869
aV_flight17_
p1870
aVCRO31
p1871
aVM_Butler31
p1872
aVTUoffTOz
p1873
aVImoanClaiborne
p1874
aVtkelce
p1875
aVJorvorskieLane
p1876
aVWillAllenWAF
p1877
aVJAttaochu45
p1878
aVelbravo_47
p1879
aVlivinglegend_44
p1880
aVdshead24
p1881
aVtevitastevens
p1882
aVQua_Nito
p1883
aVBDixs1
p1884
aVjsimms1119
p1885
aVTannerPurdum
p1886
aVifo14
p1887
aVMontaeNicholson
p1888
aVStayingInMyLane
p1889
aVJD_22bsm
p1890
aVCuriousjorge65
p1891
aVDWilliams_60
p1892
aVHAbdullah39
p1893
aVBanyard_J
p1894
aV70LaelCollins
p1895
aVButler_jay
p1896
aVcammyjfresh
p1897
aVEgo_Gets_Dollas
p1898
aVDeSeanJackson11
p1899
aVTheSupremeTaco
p1900
aVJ_Wells72
p1901
aVCudi_K
p1902
aVmfarley41
p1903
aVGregMancz
p1904
aVTedGinnJr_19
p1905
aVTruCorbin64
p1906
aVLSUShep10
p1907
aVOrson_charles
p1908
aV55KOAMISI
p1909
aVDionLewisRB
p1910
aVNeville_Hewitt
p1911
aVMJ_Agent90
p1912
aV_willcompton
p1913
aVcponder7
p1914
aVMojomdj
p1915
aVHungry_Humble22
p1916
aVrushmoore90
p1917
aVRandawg_LIVE15
p1918
aVDougBaldwinJr
p1919
aVGolston64
p1920
aVCodyHighRollerr
p1921
aVmarcmariani80
p1922
aVGainesTrain_31
p1923
aVKevinPamphile64
p1924
aVBarryChurch42
p1925
aVdannylan51
p1926
aVJoshHarris25
p1927
aVNightmare1147
p1928
aVJehovahHill
p1929
aVJaredGoff16
p1930
aVJJolly97
p1931
aVTheWorldof_AJ
p1932
aVLevitreAndy
p1933
aVtwheat002
p1934
aVDurellEskridge
p1935
aV1Goal1Dream
p1936
aVBighill44
p1937
aVQBGGilbert
p1938
aVAndersonColt
p1939
aVTravisRudolph5
p1940
aVLT_Da_DT
p1941
aVDBarnes_18
p1942
aVrandywattson
p1943
aVE_Reid35
p1944
aVRandallTelfer
p1945
aVkaaya323
p1946
aVronald26lsu
p1947
aVryantannehill1
p1948
aVNDmartin72
p1949
aVSenoriseP
p1950
aVRMos_8Ball
p1951
aVPatrickMahomes5
p1952
aVNdamukongSuh
p1953
aVDavis_Webb5
p1954
aVShaunPraterRE
p1955
aVkev_red52
p1956
aV_31Flavorz
p1957
aVTheMalikJackson
p1958
aVOrleansDarkwa
p1959
aVEWatts78
p1960
aVJakeMcQuaide
p1961
aVMelvingordon25
p1962
aViamjohnthethird
p1963
aVE_Ninety3
p1964
aVJBerry_4
p1965
aVnateorchard44
p1966
aVManVanDogBlog
p1967
aVsnacks
p1968
aVCJacobs_10
p1969
aVjwat14
p1970
aVsammywatkins
p1971
aVPattonBoy_11
p1972
aVEKD92
p1973
aV684_Luani05
p1974
aVreggieragland
p1975
aVCalebBrantleyFB
p1976
aVMychalRivera
p1977
aVThe_Dream99
p1978
aVbejones00
p1979
aVDarrellStuckey
p1980
aVGloverWright
p1981
aVBossWard43
p1982
aVrmathews24
p1983
aVWE_69
p1984
aVbscherff68
p1985
aVRealrclark25
p1986
aVAWilliamson54
p1987
aVxaviergcooper
p1988
aVantrelrolle26
p1989
aVandytanner14
p1990
aVDylanPThompson
p1991
aVAAP_30
p1992
aVBen_Edwards6
p1993
aVUce_Lauvao
p1994
aVStepStr8_97
p1995
aVddkjr26
p1996
aVMongoFeliciano
p1997
aVBMarshall
p1998
aVMistral_Raymond
p1999
aVJetMckinnon1
p2000
aVAyoItsND
p2001
aVJordansJordans3
p2002
aVCoreyClement_6
p2003
aVaarondobson17
p2004
aVWatchJRoss
p2005
aVZMiller86
p2006
aVAnthonyHitchens
p2007
aVJames44Starks
p2008
aVbilalpowell29
p2009
aVib_eazy
p2010
aVAlmightyLO6
p2011
aVMarkGlowinski73
p2012
aVejstinson72
p2013
aVjrjanis
p2014
aVsamtevi32
p2015
aVmhunter17
p2016
aVtytan9
p2017
aVDJTheWarrior76
p2018
aVLeeSmith_86
p2019
aVTyms2Times
p2020
aVB_Wegher
p2021
aVdillonfarrell
p2022
aVKirkCousins8
p2023
aVjoshmartin95
p2024
aVMalcSmitty
p2025
aVDavonHouse
p2026
aVC_Manhertz
p2027
aVBranchNout90
p2028
aVEarl_Thomas
p2029
aVrickyortizzzz
p2030
aVJAY_E_9
p2031
aVkennyladlo
p2032
aVLorenzo_Doss
p2033
aVJHekker
p2034
aVBeau_Allen
p2035
aVIamJoshG
p2036
aVFlash80jr
p2037
aVRussell_Melk_60
p2038
aVDavidAmerson1
p2039
aVTheBiggerBen
p2040
aVDavidFales
p2041
aVRazorback98
p2042
aVBJack9TTU
p2043
aVJachalp3
p2044
aVTyrellWilliams_
p2045
aVjabaalsheard
p2046
aVD_Hawthorne57
p2047
aVMROGLETREE52
p2048
aVtavonwilson
p2049
aVflash1834
p2050
aVjalen6saunders
p2051
aVMr_staynfocus
p2052
aVTeamJuJu
p2053
aVJamal_Carter6
p2054
aVholden_it_down_
p2055
aVchancewarmack
p2056
aVChuckC36
p2057
aVABlythe63
p2058
aVNelson_Island
p2059
aV4_flat
p2060
aVDariusJButler
p2061
aVDjread98
p2062
aVJayonBrown12
p2063
aVLukeKuechly
p2064
aVJ_Mitch05
p2065
aVbigx98
p2066
aVMitchSchwartz72
p2067
aVRakeemNunez
p2068
aVZCunningham_LB
p2069
aVWillThrill25
p2070
aVAustinEkeler
p2071
aVbretthundley7
p2072
aVDavidJohnson31
p2073
aVTheVonnBell7
p2074
aVMichaelOher
p2075
aVS_Morris17
p2076
aVculkin22
p2077
aVRobbieGould09
p2078
aVTheKidToben
p2079
aVLotto_Ticket
p2080
aVHawk
p2081
aVJoeWebb_14
p2082
aVHouse81
p2083
aVOttoLewis_
p2084
aVstephoneanthony
p2085
aVCalebSturgis1
p2086
aVRodger_Saffold
p2087
aVtheorganicfrost
p2088
aVTyGaffney
p2089
aVMcGloinQB11
p2090
aVNeiko15
p2091
aVkdodd98
p2092
aVtmoton72
p2093
aVdancarpenterNFL
p2094
aVDuke_Nukem21
p2095
aVjsitton71
p2096
aVLBallentineIII
p2097
aVCWatt65
p2098
aVKCone12
p2099
aVBigBusiness_25
p2100
aVtmoore94
p2101
aVMilesKillebrew
p2102
aVDatGreenGuy51
p2103
aVstarks94
p2104
aVdantefowler
p2105
aVMontori_Hughes
p2106
aVAJ_Derby
p2107
aVPitaTaumoepenu
p2108
aVJayPrice04
p2109
aVjpowe57
p2110
aVPasoni_59
p2111
aVChrisHarrisJr
p2112
aVBenTateRB
p2113
aVKhaledHolmes
p2114
aVMikeey___
p2115
aVJasonBabin93
p2116
aVQDemps
p2117
aVjoehaden23
p2118
aVnicosiragusa56
p2119
aVTarellBasham
p2120
aVJvw_3
p2121
aVG_Holmes86
p2122
aVBradNortmanisms
p2123
aVleddy_55
p2124
aVTheRealOjHoward
p2125
aVtim_white6
p2126
aVCoreyGranttt
p2127
aVFHARO_Turn91
p2128
aVIm_MikeB
p2129
aVJwalk_back12
p2130
aVdionj95
p2131
aVByron31Jump
p2132
aVKingCash_7191
p2133
aVJonCondo
p2134
aVi_BSmith4
p2135
aVCoreyLevin62
p2136
aVJSinz84
p2137
aVJoeHaeg59
p2138
aVDanny_Shelton55
p2139
aVG_Scruggs
p2140
aVjordanOLB
p2141
aVabryant95
p2142
aVjbdale72
p2143
aVKGLewis21
p2144
aValexmack51
p2145
aVstar_island25
p2146
aVdustincolquitt2
p2147
aVJEcarpenter77
p2148
aVWanye_Kanye
p2149
aVJasonTrusnik
p2150
aVaujharris
p2151
aVNLtyoung
p2152
aVGod_Son80
p2153
aVPjWilliams_26
p2154
aVCoreyPeters91
p2155
aVMcGovenator60
p2156
aVfat_daddy33
p2157
aVtheZLazer37
p2158
aVWoodDro52
p2159
aVsoldernate
p2160
aVBPierce_30
p2161
aVJGeorge52
p2162
aVStClark30
p2163
aVVonMiller
p2164
aVMjwhite23
p2165
aVMaurkicePouncey
p2166
aVD_Harris17
p2167
aVBbrownFoeLife
p2168
aVLookIn_Da_Miere
p2169
aVmiketolbert35
p2170
aVC_Hubbard74
p2171
aVBrettFavre
p2172
aVJZutt7176
p2173
aVDismukes50
p2174
aVChris_Wormley43
p2175
aVChukwu77
p2176
aVJ_ACER22
p2177
aVjake_elliott22
p2178
aVTkunodos
p2179
aVRobT_33
p2180
aVjoeyhunt53
p2181
aVJJJansen44
p2182
aVSouthcity22
p2183
aVDBrickashaw
p2184
aVNickDzubnar
p2185
aVJustBlack81
p2186
aVSalute2Dat5ive
p2187
aVBBortles5
p2188
aVjdrescher88
p2189
aVLeaveittomeecho
p2190
aVDrehal29
p2191
aVlucky_lefty5
p2192
aVCooperHelfet
p2193
aVlaken77
p2194
aVRodney_McLeod4
p2195
aVKJ_WRIGHT34
p2196
aVZachStrief
p2197
aVKieroSmall
p2198
aVPlaymaka3x4
p2199
aVP2
p2200
aVTRawls810
p2201
aVferrarifoster
p2202
aVRamon_Humber53
p2203
aVnazjones90
p2204
aVMattForte22
p2205
aVKingLiyyon
p2206
aVTheSnappingLife
p2207
aVOrieLemon
p2208
aVjairusbyrd
p2209
aVJimmywilson_27
p2210
aVdbailey_18
p2211
aVC_hollister81
p2212
aVjharrison9292
p2213
aVJosh__Keyes
p2214
aVSchmidttykicker
p2215
aVits_hollyWOODS
p2216
aVmontechristo96
p2217
aVMarcusSmithII
p2218
aVShayneSkov
p2219
aVKelvinBeachumJr
p2220
aVQui22Rodgers
p2221
aVdrewmorgan15
p2222
aVDevCarr1
p2223
aVABC_SJB
p2224
aVteddyb_h2o
p2225
aVBenjaminSWatson
p2226
aVkoymonster
p2227
aVDeMarcoMurray
p2228
aVTaylorLewan77
p2229
aVHeemAtCal
p2230
aVJaredCook89
p2231
aVmrinman15
p2232
aVlanokash
p2233
aVQuaski29
p2234
aV8nicknovak
p2235
aVDAnderson314
p2236
aVdelaniewalker82
p2237
aVPRICEBOY22
p2238
aVHughThornton
p2239
aVTGafford43
p2240
aVMatthewMilanoo
p2241
aVBubba_March
p2242
aVBIrvin_WVU11
p2243
aVAndrewAdams33
p2244
aVBGrew87
p2245
aVLolosDad1026
p2246
aVLaurentDTardif
p2247
aVDskuta51
p2248
aVericwinston
p2249
aVgglasgow61
p2250
aVHIT_STIQ4
p2251
aVDMORG_82
p2252
aVJDoc_son
p2253
aVRyanShazier
p2254
aVJJWatt
p2255
aVdsmithosu
p2256
aVHermans_House
p2257
aVMychalKendricks
p2258
aVKingTunsil78
p2259
aVDominiqueEasley
p2260
aVMike__Pouncey
p2261
aVASTATE_8
p2262
aVJDurant52
p2263
aVbraedonbowman
p2264
aVM_B_24
p2265
aVJordanGay94
p2266
aVsatele64
p2267
aVHDouglas83
p2268
aVThaMonstar
p2269
aVILLUMANINETY
p2270
aVtswoopes18
p2271
aVShelbyHarris93
p2272
aVdak
p2273
aVTim_Wright83
p2274
aVInduetime926
p2275
aVjordanevans_50
p2276
aVjustinhunter_11
p2277
aVPRic508
p2278
aVEl_Tee_78
p2279
aVTruckNeild
p2280
aVJarrydHayne
p2281
aVClayMatthews52
p2282
aVBumpNrunGilm0re
p2283
aVBCarr39
p2284
aVferg_914
p2285
aVjkruger99
p2286
aVKeenanRobinson1
p2287
aVkyle_peko65
p2288
aVTheRealZSmith
p2289
aVflamp76
p2290
aVMauriceCanady26
p2291
aVTruMcBride
p2292
aVpoolioo
p2293
aVA_K_F_3
p2294
aVEddieRoyalWR
p2295
aVDarynColledge
p2296
aV_BigBen7
p2297
aVJLaurinaitis55
p2298
aVgagilk73
p2299
aVRealDannyVitale
p2300
aVghost_0836
p2301
aVCoby
p2302
aVAJKlein47
p2303
aVBigTill66
p2304
aVmulatto15
p2305
aVgkittle46
p2306
aVJamellFleming
p2307
aVDeForestBuckner
p2308
aVBabyLead
p2309
aVMaximumGaines
p2310
aVEmanLamur
p2311
aVM_Ryan02
p2312
aVTheJimmyGraham
p2313
aV_SwaggDee
p2314
aVDanielKilgore67
p2315
aVJeLLy_ThaDON
p2316
aVkeke_mingo
p2317
aVJrodVCrick
p2318
aVstevemaneri
p2319
aVobumg
p2320
aVZERTZ_86
p2321
aVSavageSevv
p2322
aVKelvintaylor21
p2323
aVwesso_96
p2324
aVMichaelBrockers
p2325
aVthetangibleC4
p2326
aVTheRealFrankC_
p2327
aVrome081
p2328
aVJacobbiJustice
p2329
aVJimmyClausen
p2330
aVKeithReaser3
p2331
aVB_Cole16
p2332
aVBrianSchwenke
p2333
aVJusSayNate
p2334
aValexsingleton49
p2335
aVKingRod90
p2336
aVman_dammn
p2337
aVJordanTodman
p2338
aVzdeossie
p2339
aVMarcusJLucas
p2340
aVTWaynes_15
p2341
aV334Upshaw41
p2342
aVBruceMillerIII
p2343
aVT_Ford3
p2344
aVUDWJPP
p2345
aVUn1versalyKn9wn
p2346
aVCardale7_
p2347
aVTheBeastPennel
p2348
aVdandrews61
p2349
aVMoBetta_42
p2350
aVTony_TDUB
p2351
aVJulius_Thomas
p2352
aVBlafell1
p2353
aVDirtySix
p2354
aVsinjen66
p2355
aVI_AM_Worthy99
p2356
aVRickyLumpkin
p2357
aVTrevorGrahamJR
p2358
aVBigSmitty71
p2359
aVJarvis99jenkins
p2360
aVNeironBall_11
p2361
aVbrandongraham55
p2362
aVRealNaPalm
p2363
aVpmcphee90
p2364
aVW_Clarke98
p2365
aVacarrington662
p2366
aVGlennDorsey72
p2367
aVBwagz
p2368
aVJaboowins
p2369
aVEdDickson84
p2370
aVSprui11z
p2371
aVDBryant92
p2372
aVFurman_410
p2373
aVZachFulton72
p2374
aVJosh_Boyce
p2375
aVNick2oon
p2376
aVDWashington58
p2377
aVAldonSmith
p2378
aVabayerbg82
p2379
aVnatechandler89
p2380
aVR_murphy25
p2381
aVMattPrater_5
p2382
aVSdotRich91
p2383
aVChris1Banjo
p2384
aVMattSpaeth89
p2385
aVTreMason
p2386
aVCjAndersonRB9
p2387
aVDarrenFells
p2388
aVWSB_916
p2389
aVS_JBAKER
p2390
aVjaronbrown13
p2391
aVmarcelldareus
p2392
aVDjackson_6
p2393
aVPoeMans_dream
p2394
aVKelemete65
p2395
aVMister_Wont_Die
p2396
aVBeanzz16
p2397
aVKWilliams_2
p2398
aVMattBosher5
p2399
aVCWhite51
p2400
aVdennispitta
p2401
aVCoreyWhiteJr3
p2402
aVT_Armstead72
p2403
aVDANNY__63
p2404
aVTankLawrence
p2405
aVtrey_the_truth
p2406
aVTaylor_Heinicke
p2407
aVKamarAiken88
p2408
aVSeanSMITH24
p2409
aVNickFoles
p2410
aVEliMHood
p2411
aV68Breno
p2412
atp2413
Rp2414
.