(dp0
S'ChicagoBears'
p1
(lp2
S'bears-players'
p3
asS'Broncos'
p4
(lp5
S'broncos-players1'
p6
asS'Vikings'
p7
(lp8
S'players'
p9
asS'Saints'
p10
(lp11
S'saints-players'
p12
asS'steelers'
p13
(lp14
S'former-steelers-players'
p15
ag9
asS'Chargers'
p16
(lp17
S'team-roster'
p18
aS'alum'
p19
asS'MiamiDolphins'
p20
(lp21
S'dolphins'
p22
asS'Lions'
p23
(lp24
g9
aS'alumni'
p25
asS'Eagles'
p26
(lp27
S'eagles-alumni'
p28
aS'philadelphia-eagles'
p29
asS'Browns'
p30
(lp31
S'browns-players'
p32
asS'AtlantaFalcons'
p33
(lp34
S'Players'
p35
aS'rookies-in-2018'
p36
aS'falcons-alumni'
p37
asS'Giants'
p38
(lp39
S'giants-players'
p40
asS'Buccaneers'
p41
(lp42
sS'Bengals'
p43
(lp44
g9
asS'Chiefs'
p45
(lp46
S'chiefs-alumni'
p47
aS'chiefs-players'
p48
asS'Jaguars'
p49
(lp50
g9
asS'Seahawks'
p51
(lp52
S'players1'
p53
asS'dallascowboys'
p54
(lp55
g53
asS'Ravens'
p56
(lp57
S'former-ravens'
p58
aS'current-players'
p59
asS'Colts'
p60
(lp61
S'colts-players'
p62
asS'Redskins'
p63
(lp64
S'redskins-alumni1'
p65
asS'Titans'
p66
(lp67
g9
asS'RAIDERS'
p68
(lp69
S'raiders-roster'
p70
asS'nyjets'
p71
(lp72
g9
asS'buffalobills'
p73
(lp74
g25
ag9
asS'packers'
p75
(lp76
sS'RamsNFL'
p77
(lp78
S'los-angeles-rams-roster'
p79
aS'rams-legends'
p80
asS'49ers'
p81
(lp82
g9
ag25
asS'AZCardinals'
p83
(lp84
S'arizona-cardinals-players'
p85
asS'Patriots'
p86
(lp87
S'Patriots-Players'
p88
asS'HoustonTexans'
p89
(lp90
S'houston-texans-players'
p91
asS'Panthers'
p92
(lp93
S'panthers-players'
p94
as.