c__builtin__
set
p0
((lp1
VChicagoBears
p2
aVBroncos
p3
aVVikings
p4
aVSaints
p5
aVsteelers
p6
aVChargers
p7
aVMiamiDolphins
p8
aVLions
p9
aVEagles
p10
aVBrowns
p11
aVAtlantaFalcons
p12
aVGiants
p13
aVBuccaneers
p14
aVBengals
p15
aVChiefs
p16
aVJaguars
p17
aVRedskins
p18
aVdallascowboys
p19
aVRavens
p20
aVColts
p21
aVSeahawks
p22
aVTitans
p23
aVRAIDERS
p24
aVnyjets
p25
aVbuffalobills
p26
aVpackers
p27
aVRamsNFL
p28
aV49ers
p29
aVAZCardinals
p30
aVPatriots
p31
aVHoustonTexans
p32
aVPanthers
p33
atp34
Rp35
.