(dp0
S'team'
p1
c__builtin__
set
p2
((lp3
Vhistepper33
p4
aVDCarter_2
p5
aVSheldonDay_91
p6
aVbillromanowski
p7
aVdmainy_13
p8
aVJuiceCheck44
p9
aVbcoyle50
p10
aVSenseispunk
p11
aVMarcellJHarris
p12
aVSollyThomas90
p13
aVTrent5Taylor
p14
aVrandycrossFB
p15
aVtarvarius2
p16
aVMalcSmitty
p17
aVNajeeToran69
p18
aVgkittle46
p19
aVPierreGarcon
p20
aVJerryRice
p21
aVpinion92
p22
aVIamJoshG
p23
aVfred_warner
p24
aVjefflocke9
p25
aVvbolden17
p26
aVWakeEmupJeff903
p27
aVlaken77
p28
aVPopes75
p29
aVdekodawatson57
p30
aVGarry_Gilliam
p31
aVsuperblair
p32
aVelee_doubleace
p33
aVMNzeocha
p34
aVmmcglinch68
p35
aVferrarifoster
p36
aVDon_Jones5
p37
aVJuTaylor8
p38
aVjstaley74
p39
aVKBNelson17
p40
aVRenrut58
p41
aVBournePoly11
p42
aVQuaski29
p43
aV_ericdavis_
p44
aVRonnieLottHOF
p45
aVDeForestBuckner
p46
aV49ers
p47
aVDanaStubby94
p48
aV_cgriffin14
p49
aVD7_Reed
p50
aVSupaStreet35
p51
aVJoeMontana
p52
aVdiesel62wku
p53
aVDwightHicks22
p54
aVRobbieGould09
p55
aVEliHarold_
p56
aVGCells85
p57
aVAldrickRobinson
p58
aVRMos_8Ball
p59
aVithinkitwasCJ3
p60
aVJeremyMcNichols
p61
aVJAttaochu45
p62
aVkingcole45
p63
aVJWills_28
p64
aVMikeShumann
p65
aVnotoriousmax25
p66
aVEarlMitchell90
p67
aVPitaTaumoepenu
p68
aVRikiEllison
p69
aVflashg88dwin
p70
aV1Tyvis
p71
aVerikmagnuson78
p72
aVzanebeadles
p73
aVT_McFadden4
p74
aVahkello
p75
aVRSherman_25
p76
aVcolehikutini_07
p77
aVarikarmstead
p78
aVJimmyG_10
p79
aVPatrickWillis52
p80
aVTakeoSpikes51
p81
aVKWilliams_2
p82
aVTheUnderDog_64
p83
aVPaceMurphy
p84
aVdjjones_44
p85
aVKingCash_7191
p86
aVmrmaybach13
p87
aVAdrianColbert27
p88
aVNickMullens
p89
aVKorey_Toomer
p90
aVvicbolden
p91
aVCharlesHaley94
p92
aVDTBrownSF
p93
aVJetMckinnon1
p94
atp95
Rp96
s.