(dp0
S'team'
p1
c__builtin__
set
p2
((lp3
VDeadrin10
p4
aVSack_Religious
p5
aVroddywhiteTV
p6
aVaujharris
p7
aVTakk
p8
aVCWiley99
p9
aVpoolioo
p10
aVarcherqb16
p11
aVTwoSportman
p12
aVMo_12_Sanu
p13
aVToddDuckett
p14
aVt_mangen82
p15
aVchrisredman8
p16
aVWarrickDunn
p17
aVrockorocky
p18
aVRicardo37Allen
p19
aVfoyelicious
p20
aVDeionSanders
p21
aVCalvinRidley1
p22
aVKurtBenkert
p23
aV_SpeedyByrd
p24
aVBrandonFusco
p25
aVI_Owe_Deji
p26
aVchrisdraft
p27
aVJoseph_Putu
p28
aVEphraimSalaam
p29
aVDetrichClark
p30
aVdevontafreeman
p31
aVTheMooseNation
p32
aV_isaiah_oliver_
p33
aVBrooksreed50
p34
aVKeionCarpenter
p35
aVM_Ryan02
p36
aVsalesi_u
p37
aVCoyWire
p38
aVjakeroh94
p39
aVwoverstr
p40
aVAlge_Crumpler
p41
aVAlexShaggyGray
p42
aValexmack51
p43
aVJCHassenauer
p44
aVDesmondTrufant
p45
aVimso_haitian
p46
aVdebo
p47
aVAPsixseven
p48
aVwebsterjr
p49
aVjefelam
p50
aVrealcbennett97
p51
aVReggieKelly82
p52
aVKeanu_Neal
p53
aVLetItReign52
p54
aVTGraham_JR
p55
aVPatrickKerney
p56
aVOJ_G1
p57
aVWinbush98
p58
aVjuliojones_11
p59
aVDerrickShelbyII
p60
aV1REGGIEDAVIS
p61
aVJbet26
p62
aVDewMac52
p63
aVjoeyivie
p64
aVthorntonfitness
p65
aVMAN23SMITH4
p66
aVLevitreAndy
p67
aVwrehblidi
p68
aVAustinHooper18
p69
aV1Goal1Dream
p70
aVdeanteburton8
p71
aVFreakMagic2
p72
aVDirtySix
p73
aVGarrisonSmith56
p74
aVItoSmith
p75
aVbigplayhall_A2N
p76
aVMatt_Bryant3
p77
aVBFinn86
p78
aVDamontaekazee
p79
aVTeco_Raww
p80
aVcodeblackrich4
p81
aVLB_ellerbee42
p82
aVjtmhuh
p83
aVCame_Along_Way
p84
aV___unocinco
p85
aV_Hit_Mann
p86
aVFlyyGrayy
p87
aVwhatupbob
p88
aVjamthedirtybird
p89
aVGradyJarrett
p90
aVBuddyCurry50
p91
aVNickyWilz13
p92
aVsneakyneas
p93
aVMattBosher5
p94
aVGageRussell
p95
aV2ko_Tookie
p96
aVfullalove87
p97
aVjakematthews70
p98
aVLukeMcNitt
p99
aVMVPWard
p100
aVtrevor_knight9
p101
aVToddMcclure62
p102
aVBenGarland63
p103
aVchucksmithnfl
p104
aVGoldberg
p105
aVVicBeasley3
p106
aVlifesonlyperk
p107
atp108
Rp109
s.