(dp0
S'team'
p1
c__builtin__
set
p2
((lp3
VChaseEdmonds22
p4
aVMike_Glennon
p5
aVMartinPraiseO
p6
aVjosh3rosen
p7
aVPasoni_59
p8
aVfrankginda05
p9
aVBHillay
p10
aV74_hump
p11
aVHungry_Humble22
p12
aVRickySealsJones
p13
aVThelegendmerlyn
p14
aVKingRod90
p15
aVjaycash_16
p16
aVchanjones55
p17
aVBIGboehmTHEORY
p18
aValecbloom86
p19
aVT_Ocho8
p20
aVDatDudeNameDora
p21
aVG_Holmes86
p22
aVoppy2296
p23
aVtyvonbranch
p24
aVEagle4_life72
p25
aVb_wwilliams
p26
aVLarryFitzgerald
p27
aVDavidJohnson31
p28
aVASTATE_8
p29
aVelipenny_22
p30
aVkerwinning_
p31
aVgo_10_
p32
aVblackXsuperman
p33
aVbynestime56
p34
aVJustinPugh
p35
aVMoney_Mox
p36
aVCoreyPeters91
p37
aVBigSmitty71
p38
aVRocketRoss_19
p39
aVphil_dawson_4
p40
aV_ThaJizzleMan
p41
aVmarkusgolden
p42
aVBrittanGolden
p43
aVbuddabaker32
p44
aVtheorganicfrost
p45
aVpoppaC01
p46
aVDGardeck
p47
aVTUoffTOz
p48
aVaqshipley
p49
aVMasonCole64
p50
aVDaSlimC
p51
aVAAP_30
p52
aVholden_it_down_
p53
aVChristianDavon2
p54
aVe_Momah
p55
aVBrice_Butler
p56
aVaj25howard
p57
aVABethea41
p58
aVchrisrocck1
p59
aVTwoStarScoob
p60
aVjjowens_3
p61
aVzeke_turner
p62
aVP2
p63
aVEbattle_19
p64
aVVollertAndrew
p65
aVHaason7Reddick
p66
aVChannel__10
p67
aVAndyLee4
p68
aVAriansFF
p69
aVKarlosdansby56
p70
aVbig_paint
p71
aVdeonebucannon20
p72
atp73
Rp74
s.