(dp0
S'team'
p1
c__builtin__
set
p2
((lp3
VItsBWilson_
p4
aVG_Bernard25
p5
aVKeivarae1
p6
aVjordanevans_50
p7
aVPB_Number2
p8
aV36SLY36
p9
aVClayFejedelem
p10
aVcwest_55
p11
aVClarkHarris46
p12
aVcjuzomah81
p13
aVDDennard21
p14
aVjoshuamalone03
p15
aVmalikjefferson
p16
aVCoachKyleCaskey
p17
aVMoBoehringer
p18
aVthe24elite
p19
aVcbakerswaggy
p20
aVWatchJRoss
p21
aVBlafell1
p22
aVJoe_MainMixon
p23
aVcboling60
p24
aVjlbiii3
p25
aVcordyglenn77
p26
aVKmint_46
p27
aVMattBarkley
p28
aVandydalton14
p29
aVkhuber10
p30
aVBigSmitty71
p31
aVBraydenCoombs
p32
aVccarter_11
p33
aVHuey_85
p34
aVGeorge_iloka
p35
aVMJ_Agent90
p36
aVlil_t8te
p37
aVcarllawson55
p38
aVKing55Tez
p39
aVericksona86
p40
aVMikeNugent85
p41
aVCedPeerman30
p42
aVCarlos_Dunlap
p43
aVDreKirkSWAG
p44
aVajgreen_18
p45
aVHeezy2Liv5
p46
aVtylereifert
p47
aVjeffdriskel
p48
aVjr_roderick
p49
aVBengalWayFIIVE
p50
aVNuff_ced70
p51
aVBrandonT_98
p52
aVCody16Core
p53
aVrandybullock28
p54
aVSam_Hubbard_
p55
aVfantastik_willo
p56
aVDrizoBeats
p57
aVPlutoCarson
p58
aVVinnyRey
p59
aVGreatGlasby
p60
aVboutdat_23
p61
aVGenoSacks
p62
aVDenariusMoore
p63
aVBillingsAndrew
p64
atp65
Rp66
s.