(dp0
S'team'
p1
c__builtin__
set
p2
((lp3
VZachKerr92
p4
aVDHenderson31
p5
aVBroncos
p6
aVthekidmcmanus
p7
aVBigLeary65
p8
aVChrisHarrisJr
p9
aVkyle_peko65
p10
aVdbook23
p11
aVMOOCHIE048
p12
aVJamal_Carter6
p13
aVTroyFumagalli
p14
aVPaxtonLynch
p15
aVgbolles72
p16
aVMGarcia_76
p17
aVcasekeenum7
p18
aVBig_Mountain77
p19
aVMcGovenator60
p20
aVPhillyWill11
p21
aVrolls_royce21
p22
aVClintMyles
p23
aVSuttonCourtland
p24
aVastronaut
p25
aVDerek_Wolfe95
p26
aVVonMiller
p27
aVAndyJanovich
p28
aVDomataPeko
p29
aVisaacshowtime
p30
aVGroovyBabyAT
p31
aVBamBamDavis51
p32
aV_CRADICULOUS
p33
aVtwo_dice
p34
aV1kinglang
p35
aVStingRay56
p36
aVVeldheer68
p37
aVsamthejonesy
p38
aVMenelikWatson
p39
aVD_will33
p40
aVSkeeterMills__
p41
aViammsuzy
p42
aVgotsis96
p43
aVcaseykreiter
p44
aVShelbyHarris93
p45
aVESanders_10
p46
aVdarianstewart26
p47
aVZaireanderson13
p48
aVCHenderson_2
p49
aVJakeButtTE
p50
aVlivinglegend_44
p51
aVChadkelly_6
p52
aVBMarshh
p53
aVJHeuerman86
p54
aVBradRoby_1
p55
aVjsimms1119
p56
aVMarquetteKing
p57
aVjosey_jewell
p58
aVKBierria
p59
aVDemaryiusT
p60
atp61
Rp62
s.