(dp0
S'team'
p1
c__builtin__
set
p2
((lp3
Vnateorchard44
p4
aVHomesteadLB
p5
aVdizzydayes_21
p6
aVDukeJohnson_8
p7
aVReitErDie78
p8
aVCoreyWhiteJr3
p9
aVTheCoreyColeman
p10
aVMylesLGarrett
p11
aVZaneG_5
p12
aVTyrodTaylor
p13
aVdrewstanton
p14
aVtj_carrie
p15
aVjaycash_16
p16
aVBrowns
p17
aVGod_Son80
p18
aVEmanOgbah
p19
aVTheHybrid_86
p20
aVCallGod8
p21
aVCalebBrantleyFB
p22
aVRandallTime
p23
aVD_SmithFS
p24
aVdarthBoCa
p25
aVquezdaman_36
p26
aVj_collins91
p27
aVbj_bello
p28
aVDrango58
p29
aVBigCorbs73
p30
aV_DAlexander1
p31
aVNickChubb21
p32
aVjrjanis
p33
aVMajorNine
p34
aVCharleyHughlett
p35
aVJabrillPeppers
p36
aVkzeit70
p37
aVHowardWilson_6
p38
aVtankcarder
p39
aVSethDevalve
p40
aVbakermayfield
p41
aVelguapo
p42
aVCALLME_WOOD
p43
aVMr_Ogunjobi
p44
aVTheRealBigShon
p45
aVDavid_Njoku80
p46
aVRealDannyVitale
p47
aVjoethomas73
p48
aVRipbobby_G
p49
aVRodBeBalling
p50
aVGuttaManRick
p51
aVAveryGenard
p52
aVJCTretter
p53
aVDarrenFells
p54
aVkhoagie8
p55
aVC_Hubbard74
p56
aVTheSchoGoesOn53
p57
aVJoelBitonio
p58
aVcjboard8
p59
aVAyee_See
p60
aVjamie_meder98
p61
aVMIKE_JORDAN41
p62
aVJimBrownNFL32
p63
aVKirko58
p64
aVddkjr26
p65
aVdenzelward
p66
aVTrevonColey
p67
aVGainesTrain_31
p68
atp69
Rp70
s.