(dp0
S'team'
p1
c__builtin__
set
p2
((lp3
VFredSmerlas
p4
aVEddieYarbrough
p5
aVteambryanscott
p6
aVCALiboy4
p7
aVDarrylTalley
p8
aVLawyerMilloy
p9
aVdreholmes81
p10
aVmaine_savage23
p11
aVJimKelly1212
p12
aVAustinProehl11
p13
aVvontaedavis
p14
aVmarcusstroud99
p15
aVawashington_92
p16
aVTravarisCadet39
p17
aVmiketolbert35
p18
aVLoganThomasSr_6
p19
aVonemangang97
p20
aVLFletcher59
p21
aVIam_jerryhughes
p22
aVchrisdraft
p23
aVrbush36
p24
aVNickOleary35
p25
aVtreyteague70
p26
aVPatDiMarco42
p27
aVRMIII_34
p28
aVTMurphy_93
p29
aVBanyard_J
p30
aVBlantonRobert
p31
aVmarcelluswiley
p32
aVJKerley11
p33
aVwolf6769
p34
aVCoyWire
p35
aVtannervallejo
p36
aVzayjones11
p37
aVDucasseVlad
p38
aVStephenHauscka4
p39
aV3stripexander
p40
aVRamon_Humber53
p41
aVrealcbennett97
p42
aVRyanNeufeld88
p43
aVTreWhite16
p44
aVmarlonkerner46
p45
aVSpencejohnson91
p46
aVDajones19
p47
aV66_Henderson
p48
aVDougFlutie
p49
aVShaq_Lawson90
p50
aVbrianmoorman
p51
aVTytCover28
p52
aVAngeloCrowell
p53
aVSchmidttykicker
p54
aVAndre_Reed83
p55
aVshawnemerriman
p56
aVEuhusBeaver
p57
aVAndersonColt
p58
aVEWood70
p59
aVkirkmorrison
p60
aVterrellowens
p61
aVCutonDime25
p62
aVthurmanthomas
p63
aVmicah_hyde
p64
aVDrewBledsoe
p65
aVjmill_70
p66
aVMatthewMilanoo
p67
aVRuben7974
p68
aV68INCOGNITO
p69
aVGabeNorthern
p70
aVJoshAllenQB
p71
aVsonofbum
p72
aVleeevans83
p73
aVTaronj11
p74
aVAReedFoundation
p75
aVKawikaMitchell
p76
aVpalepoi95
p77
aVhorribleharry66
p78
aVTakeoSpikes51
p79
aVJ_poyer21
p80
aVkelvinbenjamin
p81
aVC42Clay
p82
aVDDawkins66
p83
aVNatePeterman
p84
aVchris_spielman
p85
aVSteveTasker89
p86
aVSnapFlow50
p87
aVlofton80
p88
aVTroyVincent23
p89
aVdisGROYer79
p90
aVJordanMills_67
p91
aVDonBeebeNFL
p92
aVMNewhouse73
p93
atp94
Rp95
s.