(dp0
S'team'
p1
c__builtin__
set
p2
((lp3
Vboonah920
p4
aVCarneyCoaching
p5
aVChrisgronkowski
p6
aVjbdale72
p7
aValovecase
p8
aVslickwynn94
p9
aVShaunPhillips95
p10
aVDo_OrAddae37
p11
aVZilla9396
p12
aVPhil_Dillard
p13
aVflamp76
p14
aVSchoBlue75
p15
aVhank_bauer
p16
aVKyleEmanuel51
p17
aVIsaacrochell90
p18
aVDWalk_1
p19
aVsamtevi32
p20
aVrandymac81
p21
aVscoe11
p22
aVShareeceWright
p23
aV_RobertoAguayo
p24
aVArtavisScott
p25
aVtr3yesimmons
p26
aVDJTheWarrior76
p27
aVScootsyQ
p28
aVUchennaN_42
p29
aVGGatson28
p30
aVshow_case29
p31
aVRussellOkung
p32
aVtheGACH
p33
aVAntwanBarnes42
p34
aVMebane92
p35
aVcvanburen
p36
aVColt3FIVE
p37
aVKHaslam70
p38
aVdrewkaser
p39
aVLorenzoNeal
p40
aVdwightfreeney
p41
aVjbbigbear
p42
aVtrapj99
p43
aVNickDzubnar
p44
aVOl_King_Cole
p45
aVdukephilon_07
p46
aVmarcelluswiley
p47
aVE_Baker4
p48
aVking_green89
p49
aVBeltre__
p50
aVLT_21
p51
aVChasingFit31
p52
aVPHIL_BOGLE
p53
aVJ_ManPrime21
p54
aVKendall_Reyes
p55
aVTyrellWilliams_
p56
aVKaeding_Nate
p57
aVThaSilentOne11
p58
aVKyzirWhite8
p59
aVdarealmike_dub
p60
aVmaxstarks78
p61
aVJimmywilson_27
p62
aVMikeyQuince
p63
aVD_Alexander84
p64
aVJordanTodman
p65
aVCHairston75
p66
aVWillieSmith79
p67
aVcwhitey6
p68
aVjarrett__lee
p69
aVTheSGSquad
p70
aVblaqbadger14
p71
aVHunter_Henry84
p72
aVscafe
p73
aVEddieRoyalWR
p74
aVVincentTJackson
p75
aVLarryEnglish57
p76
aVSirles71_HSKR
p77
aVdmolk
p78
aVCardale7_
p79
aVHayesPullard
p80
aVPhillips_17
p81
aVJenks_26
p82
aVnacholeber
p83
aVJAM_I_AM_23
p84
aVbwalt19
p85
aVAustinEkeler
p86
aVGaryGuyton59
p87
aVCertified_35
p88
aVculkin22
p89
aVIAmJBattle
p90
aVkassimosgood81
p91
aVSquareboy92
p92
aVhardwina
p93
aVJerideauB
p94
aVnenderle
p95
aVaj_hendy
p96
aVTommieharris90
p97
aVdylancantrell14
p98
aVCalebSturgis1
p99
aVVGreen85
p100
aVgday85
p101
aVAkbar_Gbaja
p102
aVLeRon_McClain33
p103
aVweddlesbeard
p104
aVLaurentRobinson
p105
aVJRich__23
p106
aVmgilchr
p107
aVMikehill_30
p108
aVJfeeva_2
p109
aVnflaussie
p110
aVD_Perryman52
p111
aVMarquesHarris92
p112
aV2_Good2BTrue
p113
aVspulley77
p114
aVohrnberger
p115
aVchongachew
p116
aVMelvingordon25
p117
aVTravisBenjamin3
p118
aVdrewbrees
p119
aVpray74
p120
aV8nicknovak
p121
aVnaanee11
p122
aVjwat14
p123
aVAustin_Pettis
p124
aVsatutu19
p125
aVdarry_beckwithh
p126
aVboo70ne
p127
aVJB_five7
p128
aVklgeathers
p129
aVChrisLandrum46
p130
aVGbeezy_99
p131
aVCM_Lockdown25
p132
aVBigSpurts98
p133
aVmremmers74
p134
aVKeenan13Allen
p135
aVDre_Patt15
p136
aVTwenty7Savage
p137
aVMelvinIngram
p138
aVrmathews24
p139
aVbraedonbowman
p140
aVjpatrick019
p141
aVDerekWatt34
p142
aVThisIsOG
p143
aVlamonta_wr
p144
aVRodney_Harrison
p145
aVKevOC7
p146
aVbboyko69
p147
aVMitchellJUnrein
p148
aVWillieUno
p149
aVJ_Walls
p150
aVFozzyWhitt
p151
aVCoreyLiuget
p152
aVDerwin_James33
p153
aVScioneaux_A1
p154
aVGenoSmith3
p155
aVimthatnike
p156
aVdonavon76
p157
aVJacobHester22
p158
atp159
Rp160
s.