(dp0
S'team'
p1
c__builtin__
set
p2
((lp3
V_BNichols92
p4
aVTarikCohen
p5
aVKy1eLong
p6
aVTreyBurton8
p7
aVEricKush64
p8
aVI_irving53
p9
aVJordansJordans3
p10
aVPatODonnell_16
p11
aVmrkevinwhite
p12
aVadamshaheen3
p13
aVMtrubisky10
p14
aVDhall_Island1
p15
aVDROG_UNO
p16
aVWhItehair76
p17
aVJHowardx24
p18
aVp_scales
p19
aVLeonard90Flo
p20
aVRashaadCoward
p21
aVThe_Dream99
p22
aVStrap_Ent
p23
aVTanner4Gentry
p24
aVdeonbushlive2
p25
aVAllenRobinson
p26
aVAnthonyMiller_3
p27
aVD_Sims80
p28
aVBigXander95
p29
aVig_nacious_
p30
aVChaseDaniel
p31
aVPrinceAmukamara
p32
aVTGdadon1
p33
aVJBullard90
p34
aVJavon_Juice
p35
aVSherrickM
p36
aVDaniel_Brown10
p37
aVSmashAmos38
p38
aVBeanzz16
p39
aVkbfuller17
p40
aVMrBig434
p41
aVEddieGoldman
p42
aVtbrayvol8
p43
aVRoquanSmith1
p44
aVjamsdans
p45
aVGrindin_59
p46
aVEJackson_4
p47
aVjohntimu_10
p48
aVTheSamAcho
p49
aVCParkey36
p50
aVBen_Braunecker
p51
aVnkwiatkoski27
p52
aVEWatts78
p53
aVK_Fitts11
p54
aVjbellamydareal
p55
aVcharleslenojr72
p56
aVBennyCunningham
p57
atp58
Rp59
s.