(dp0
S'team'
p1
c__builtin__
set
p2
((lp3
Vdahughesguy83
p4
aVTonyGonzalez88
p5
aVpriestholmes
p6
aVKeFu11er
p7
aVBspeaks9
p8
aVbuttkicker7
p9
aVstonecoldjones_
p10
aVTambaHali91
p11
aVCharcandrick26
p12
aVogxfactor82
p13
aVsammywatkins
p14
aVR0bG0lden
p15
aVHAbdullah39
p16
aVJ_Winchester41
p17
aVYYBAQB
p18
aVDerrickNnadi
p19
aVDavidAmerson1
p20
aVDATBLACKMOMBA13
p21
aVWshields68
p22
aVMitchSchwartz72
p23
aVWillie_Roaf
p24
aVMrHyde_24
p25
aVJoeMontana
p26
aVBreadWinner084
p27
aVWitz76
p28
aVT_Smith24fsu
p29
aV_Tre_Smith_
p30
aVStuntman1429
p31
aVBig_Fish79
p32
aVKareemhunt7
p33
aVDorian
p34
aVcheetah
p35
aVbigx98
p36
aVOrson_charles
p37
aVsuperdj56
p38
aVhoneythunder14
p39
aVGGPR_BANGER5
p40
aVMMorse61
p41
aVreggieragland
p42
aVspenceware11
p43
aVRakeemNunez
p44
aV_flight17_
p45
aVdustincolquitt2
p46
aVtrentgreen10
p47
aVPatrickMahomes5
p48
aVAnthonyHitchens
p49
aVShermanator_42
p50
aVDannySorensen49
p51
aVtkelce
p52
aVRevis24
p53
aVJHouston50
p54
aVJarvis99jenkins
p55
aVMarcusDKemp
p56
aVLaurentDTardif
p57
aVPassinyo
p58
aVSdotTerrell
p59
aVKahlil_Mckenzie
p60
aVMr_A1Hunt
p61
aVjcharles25
p62
aVChristianOkoye
p63
aVBig_Park79
p64
atp65
Rp66
s.