(dp0
S'team'
p1
c__builtin__
set
p2
((lp3
VAll_Goode53
p4
aVJBrissett12
p5
aV__AWalkJr
p6
aVJvujny77
p7
aVIBeDG_71
p8
aVReece_JMM
p9
aVTarellBasham
p10
aVBossGreen256
p11
aVAnthonyCastonzo
p12
aVmfarley41
p13
aVryan_kelly70
p14
aVQuanBray
p15
aVall_in_adams
p16
aVkj_brent
p17
aVEbron85
p18
aVpierre_desir
p19
aVdc_wilson954
p20
aVjackmewhort
p21
aVjabaalsheard
p22
aVTheNyNy7
p23
aVChesterRogers80
p24
aVMarlon_Mack25
p25
aVdoylejack84
p26
aVeswoope21
p27
aVcgeathers26
p28
aVedALWAYZwin
p29
aVRigojio88
p30
aVadamvinatieri
p31
aVdsleon45
p32
aVr1dge8
p33
aVJoeHaeg59
p34
aVRobT_33
p35
aVTYHilton13
p36
atp37
Rp38
s.