(dp0
S'team'
p1
c__builtin__
set
p2
((lp3
VJaws_47
p4
aVCCovington02
p5
aVsuccessfulj7_
p6
aVkinggatz2
p7
aVWho_GotJones94
p8
aVMW_XIV
p9
aVJIHADWARD17
p10
aV70LaelCollins
p11
aVdak
p12
aVKonyEaly94
p13
aVIAM_Dat_One
p14
aVTCrawford98
p15
aVTheSupremeTaco
p16
aVmg4dontplay
p17
aVthejaylonsmith
p18
aVTerranceWill2
p19
aVborn_ambition79
p20
aVJThomas_48
p21
aVrichardash94
p22
aVEzekielElliott
p23
aVJoeVellanoDT
p24
aVcwill
p25
aVBinghamBaller9
p26
aVMHuff28
p27
aVstarbo06
p28
aVRandyGregory_4
p29
aVcedwilson95
p30
aVthegob70
p31
aVJasonWitten
p32
aVSavageSevv
p33
aVBease11
p34
aVCaliboy_95
p35
aVDorance_ALegend
p36
aVByron31Jump
p37
aVrush_cooper
p38
aVtfrederick72
p39
aVDuke_Nukem21
p40
aVits_hollyWOODS
p41
aVVanderEsch38
p42
aVTheRealDoubleMs
p43
aVBubba_March
p44
aVTheUnderDog_64
p45
aVTayaustin01
p46
aVTankLawrence
p47
aVJamesHanna84
p48
aVTakeflightchuck
p49
aVFredoSauce
p50
aVNb_Eight5
p51
aVA1hurns
p52
aVnino9brown
p53
aVBrianBrown_18
p54
aVdwilson_6
p55
aVKay_BlackSimba
p56
aVChidobeAwuzie
p57
aVImBallinNeal18
p58
aVJourdanJD
p59
atp60
Rp61
s.