(dp0
S'team'
p1
c__builtin__
set
p2
((lp3
VC_Ne7son
p4
aVTroyVincent23
p5
aVmreeseeagles
p6
aVBighugh53
p7
aVSidneyJonesIV
p8
aVmackhollins
p9
aVNigelBradham_13
p10
aVcsime90
p11
aV_TreFIVE
p12
aVLanejohnson65
p13
aVnelsonagholor
p14
aVR_Goforth3
p15
aVTheWorldof_AJ
p16
aVk_grugierhill
p17
aVMychalKendricks
p18
aVgreengoblin
p19
aVMalcolmJenkins
p20
aVNathanGerry
p21
aVrd32_era
p22
aVIke58Reese
p23
aVJOEL9ONE
p24
aVRodney_McLeod4
p25
aVdonovanjmcnabb
p26
aVstefenwiz61
p27
aVRepJonRunyan
p28
aVSweatyJ_9
p29
aV_Tron9_
p30
aVGunterBrewer
p31
aVJordanHicks
p32
aVBrianDawkins
p33
aVrealronalddarby
p34
aV72TraThomas
p35
aVjordan_mailata
p36
aVm_pryor64
p37
aVdbarnett25
p38
aVEaglesInsider
p39
aVNateSudfeld
p40
aVPumphrey6K
p41
aVDestinyVaeao
p42
aVAzizShittu
p43
aVChrisMaragos
p44
aVgoedert33
p45
aVCoreyClement_6
p46
aVIsaacSeumalo
p47
aVMarkMcMillian29
p48
aVTheSnappingLife
p49
aVBIGJDR
p50
aVPro_Hunt58
p51
aVsethjoyner
p52
aVLeonardWeaver
p53
aVbrandongraham55
p54
aVdarealtank78
p55
aVtoddherremans
p56
aVda_alex72
p57
aVbbrooks_79
p58
aVWallace17_daKid
p59
aVDarrenSproles
p60
aVMeansBusiness56
p61
aVjawsespn
p62
aVWSmallwood28
p63
aVcj_wentz
p64
aVCenterStage67
p65
aV36westbrook
p66
aVsheltongibson
p67
aVNickFoles
p68
aVfcoxx_91
p69
aVjake_elliott22
p70
aVZERTZ_86
p71
aVElijahQualls11
p72
aV83Invincible
p73
aVJayTrain
p74
aVchancewarmack
p75
aV2live_AM
p76
atp77
Rp78
s.