(dp0
S'team'
p1
c__builtin__
set
p2
((lp3
VPrime_Perk_24
p4
aV_zocarter
p5
aVkylelauletta
p6
aVJustJoshin90
p7
aVDThompson004
p8
aVEflow_74
p9
aVTheHumble_21
p10
aVWanye_Kanye
p11
aVKeenanRobinson1
p12
aVsaquon
p13
aV4stillRunning
p14
aVrepdbympm
p15
aVJonathanstewar1
p16
aVsterl_shep3
p17
aVjcasillas52
p18
aVMROGLETREE52
p19
aVChadWheeler72
p20
aVreemthedream_95
p21
aVTravisRudolph5
p22
aVgiantspathanlon
p23
aVAyoItsND
p24
aVcurtis35riley
p25
aVsoldernate
p26
aVBMarshall
p27
aVMichael31Thomas
p28
aVTheRealJT3
p29
aVmhunter17
p30
aVOttoLewis_
p31
aVOhGi_3Dawg3
p32
aVB_Good_Son
p33
aVEvanEngram
p34
aVDBE_rell
p35
aVEliApple13
p36
aVAndrewAdams33
p37
aVAlexTanney
p38
aVoliviervernon54
p39
aVBig__80
p40
aVbrettjones69
p41
aVMarkHerzlich
p42
aVShaneSmith821
p43
aVDavis_Webb5
p44
aVDalvinTomlinson
p45
aVCodyLatimer14
p46
aVShaneVereen34
p47
aVTHE_BIZ_SHOW
p48
aVpatrickomameh
p49
aVRomeoND45
p50
aVOrleansDarkwa
p51
aVOBJ_3
p52
aVwillhernandez76
p53
aVJayBrom96
p54
aVRileyTDixon92
p55
aVBJHill5
p56
aVcalmunson
p57
aV_CurtisGrant14
p58
aVzdeossie
p59
aVRashadJennings
p60
atp61
Rp62
s.