(dp0
S'team'
p1
c__builtin__
set
p2
((lp3
VZachFulton72
p4
aVBraxtonMiller5
p5
aVNightmare1147
p6
aVDjread98
p7
aVjonweeks46
p8
aVColonel82
p9
aVDuke_E_Duke
p10
aVMatt_godin81
p11
aVAColvin_22
p12
aVS_Anderson89
p13
aVJayRoss_2
p14
aVDavidQberry
p15
aVj_bademosi24
p16
aVJeffAllen71
p17
aVReemBoi25
p18
aVJJOE2424
p19
aVdeshaunwatson
p20
aVDeAndreHopkins
p21
aVDrehal29
p22
aVZCunningham_LB
p23
aVkevjr9
p24
aVBruceElling10
p25
aVMerci380
p26
aVthomasjordan601
p27
aVBIG_DADDY_K74
p28
aVbrian_peters10
p29
aVflyyCole_x4
p30
aVGregMancz
p31
aVMTRankin_57
p32
aVJoeWebb_14
p33
aVCDMHOU43
p34
aV_TD31
p35
aVKelemete65
p36
aVKalambayi34
p37
aVmillertime_6
p38
aVcarloswatkins94
p39
aVdylancole31
p40
aV13igDuke
p41
aVWill_Fuller7
p42
aVclownejd
p43
aVthetangibleC4
p44
aVNDmartin72
p45
aVPopedaadon
p46
aVbweeden3
p47
aVbm1157
p48
aVOOIbro
p49
aVJJWatt
p50
aVDeandrewWhite
p51
aV66_Henderson
p52
aVD_kilgo97
p53
aVDaRealJayProsch
p54
aVTheKekeCoutee
p55
aVJoel_Heath92
p56
aVChadSlade62
p57
aV_jcroc11
p58
aVAlfredBlue4
p59
aVK_Drummond23
p60
aVMathieu_Era
p61
aVCudi_K
p62
aVjreid_viii
p63
aVBScarlett17
p64
aVtylerervin_
p65
aVD33_foreman
p66
aVJosh__Keyes
p67
aVJermaineKelly_3
p68
aVj_robinson81
p69
aVsammiecoates11
p70
aVjudav70
p71
aVMrPrimetime4
p72
atp73
Rp74
s.