(dp0
S'team'
p1
c__builtin__
set
p2
((lp3
VTannerLee13_
p4
aVmike96bennett
p5
aVAir4Cole
p6
aVRG80_
p7
aVMylesJack
p8
aVSHANEWYNN4
p9
aVDonCarey
p10
aVBigsmoot_94
p11
aVtavenbryan93
p12
aVwillpoehls
p13
aVTelvinSmith_22
p14
aVBBortles5
p15
aVtyler_shatley
p16
aVWill_MadlyLoved
p17
aVHDimick49
p18
aVArreliousBenn
p19
aVMychalRivera
p20
aVDJChark82
p21
aVJUSTAB3
p22
aVcrobinson_68
p23
aVkoymonster
p24
aVT_Yeldon
p25
aVNilesP_
p26
aVLiiive_55
p27
aVCQReed74
p28
aVAllenLazard
p29
aVJOShaughnessy80
p30
aVTommyBo40
p31
aVAJCann60
p32
aVCodyKessler6
p33
aVjalenramsey
p34
aVJWilson330
p35
aVYannGetSacks91
p36
aVCampbell93
p37
aVJoshLambo
p38
aVivory33
p39
aVAEttaTawo
p40
aVAesj88
p41
aVRharr_15
p42
aV_fournette
p43
aVCoreyGranttt
p44
aV_Go_DJ_
p45
aVBbrownFoeLife
p46
aVTeamLee1
p47
aVjaydiggla4
p48
aVCodyDavis
p49
aVAndrewNorwell
p50
aVpatrickomameh
p51
aVtattedNspatted
p52
aVJ_Wells72
p53
aVTheMalikJackson
p54
aVdrm_12
p55
aVColinHolba
p56
aVcarsontink
p57
aV7PayneTrain
p58
aVmarcelldareus
p59
aVdantefowler
p60
aVAJBOUYE21
p61
aVBrandonLinder65
p62
aVDedeTHEGreat11
p63
aVLoganCooke2
p64
aVBarryChurch42
p65
aVphenom2323
p66
atp67
Rp68
s.