(dp0
S'team'
p1
c__builtin__
set
p2
((lp3
Vnevin_lawson
p4
aVKennyWiggins60
p5
aVBigJon76
p6
aV_bigplayslay23
p7
aVzenner31
p8
aV__taylordecker
p9
aVMikeey___
p10
aVMattPrater_5
p11
aVDevonKennard
p12
aVTrynaBeGreat_99
p13
aVStefanMcClure21
p14
aVIamTJ_Jones
p15
aVrolanmilliganjr
p16
aVqdiggs6
p17
aVZettel98
p18
aVReevesMaybin
p19
aVTJLang70
p20
aVHMAN84
p21
aVShowtimeTate
p22
aVAyeyoKEJO
p23
aVenglishpwrdrive
p24
aViamrp85
p25
aVMrKoloamatangi
p26
aVwjohnson67
p27
aVFuture020113SEC
p28
aVdshead24
p29
aVLomasBrown75
p30
aVUWdwayne12
p31
aV19scottmitchell
p32
aVStrongaLonga3
p33
aVBradMarquez_4
p34
aVjamalagnew
p35
aVchris_spielman
p36
aVleddy_55
p37
aVdrebly_32
p38
aVTracyWalkerIII
p39
aVMarvinJonesJr
p40
aVTyrellcrosby
p41
aVLG_Blount
p42
aVHakValles80
p43
aVtavonwilson
p44
aVcalvinjohnsonjr
p45
aVLevineToilolo
p46
aVCornWash
p47
aVG_ROB73
p48
aVBubbasq60
p49
aVZiggy_Ansah
p50
aVblbLXXXII
p51
aVSylwil92
p52
aV_31Flavorz
p53
aVBennieBlades36
p54
aVNBELLORE54
p55
aVandybird_81
p56
aVAmeerguapo
p57
aVKNARFWONGAR
p58
aVLWillson_82
p59
aVDanSkipper70
p60
aVMilesKillebrew
p61
aVBarrySanders
p62
aVjacegable
p63
aVSamMartin_6
p64
aVJ_Davis_40
p65
aVKerryhyderJR
p66
aV4ocho
p67
aVTheoRiddick
p68
aVgglasgow61
p69
atp70
Rp71
s.