(dp0
S'team'
p1
c__builtin__
set
p2
((lp3
Vmatthaack21
p4
aVBallOut_96
p5
aVjakebrendel
p6
aVtmcdonaldjr
p7
aVm_hull4943
p8
aVcammalveaux
p9
aVDanMarino
p10
aVKDx32
p11
aVbrandondoughty
p12
aVHRSGuestExp
p13
aVChaseAllen5
p14
aVJawuanJames70
p15
aVMoSmithII
p16
aVbosweiler17
p17
aVRQuinn94
p18
aVWalt_Aikens
p19
aVDanielKilgore67
p20
aVdrewmorgan15
p21
aVMarQueisG
p22
aVbigj9797
p23
aV99JesseDavis
p24
aVTony_Lippett14
p25
aVCTY_5
p26
aVDolphinsAcademy
p27
aVAkeemSpence
p28
aVTackleCancer
p29
aV55KOAMISI
p30
aVIAF_1
p31
aV_TheDreamIsHere
p32
aVLeonteCarroo1
p33
aVAsiataFive4
p34
aVTomGarfinkel
p35
aVstephoneanthony
p36
aVCharles_AO1
p37
aVryantannehill1
p38
aVChauxDown
p39
aVTooLoose26
p40
aVSenoriseP
p41
aVKwon_daTRUTH
p42
aVIamxavienhoward
p43
aVKingTunsil78
p44
aVDeVanteParker11
p45
aVcnelll3
p46
aVRico_Smith71
p47
aVtp_dagoer
p48
aVmikegesicki
p49
aVelbravo_47
p50
aVHardRockStadium
p51
aVKold91
p52
aVi_BSmith4
p53
aVBranchNout90
p54
aViThinkIsee12
p55
aVminkfitz_21
p56
aVreshadjones9
p57
aVbigyoungin76
p58
aVDurhamSmythe
p59
aVAnthony_Fasano
p60
aVT_Fede
p61
aVMMoneymalc9
p62
aVKSTiLLS
p63
aVthomas_duarte18
p64
aVreilly0949
p65
atp66
Rp67
s.