(dp0
S'team'
p1
c__builtin__
set
p2
((lp3
VBullDozier78
p4
aVd_donahue49
p5
aVNeal_Sterling
p6
aValldayMAYE
p7
aVJordanLeggett16
p8
aVBelegendary19
p9
aVninjafast22
p10
aVJEcarpenter77
p11
aVfrankluvu7
p12
aVChris_Authentic
p13
aVdbass91
p14
aVdsmithosu
p15
aVtreeflowers36
p16
aVTheBiggerBen
p17
aVKelvinBeachumJr
p18
aVTheBeastPennel
p19
aVSavageShepley
p20
aVNeville_Hewitt
p21
aVcairosantos19
p22
aVbrentqvale
p23
aV_therealpnick
p24
aVMrHyde_24
p25
aVneversleepon13
p26
aVIsaiahCrowell34
p27
aVTerrellePryor
p28
aVbilalpowell29
p29
aVobumg
p30
aVTswan64
p31
aVTrujohnson2
p32
aVAndreRoberts
p33
aVslong_61
p34
aVAustinGolson73
p35
aVOGSlick_46
p36
aVKmint_46
p37
aVJoshMcCown12
p38
aV_SwaggDee
p39
aVChad_Hansen6
p40
aVLozoMauldinIV
p41
aVTRawls810
p42
aVLach_Edwards49
p43
aVQuincyEnunwa
p44
aVDLeeMG8
p45
aVBucky757
p46
aVJKearse_15
p47
aVbjwint67
p48
aVAWilliamson54
p49
aVxaviergcooper
p50
aVyoungamazing9
p51
aVMr_staynfocus
p52
aVTHenny43
p53
aV_Showtime29
p54
aVTheAdamsEra
p55
aVleonardwilliams
p56
aVBCopeLB
p57
aVcannnon25
p58
aVHenryAnderson91
p59
aVSolo_Sink2
p60
aVMrInkredibleXII
p61
aVteddyb_h2o
p62
aVLawrenceLThomas
p63
aVMr_Adversityy
p64
aVRodgerThat22
p65
aVJdotBurris32
p66
aVRontezMiles
p67
aV21DM_ERA
p68
aVMoClaiborne
p69
aVNathanDShepherd
p70
aVBishop_YN
p71
aV34Jerm
p72
aVTaylorBertolet
p73
aVJHarrison_72
p74
aVjoshmartin95
p75
aVchackenberg1
p76
aVClaudePelon
p77
aVjordanOLB
p78
aVBusterSkrine
p79
atp80
Rp81
s.