(dp0
S'team'
p1
c__builtin__
set
p2
((lp3
VJJJansen44
p4
aVMayo_Man_3
p5
aVcaptain_41
p6
aVThaRealKillaCam
p7
aVgregolsen88
p8
aVrun__cmc
p9
aV_RobertoAguayo
p10
aVAIR_CORN23
p11
aVEdDickson84
p12
aVLukeKuechly
p13
aVCurtisSamuel4__
p14
aVryankalil
p15
aVtrai_turner
p16
aVBrad_B21
p17
aVpapa_yank
p18
aVThomasDavisSDTM
p19
aVQuishaynes38
p20
aVidjmoore
p21
aVCameronNewton
p22
aVD_FUNCH
p23
aVjairusbyrd
p24
aVC_Manhertz
p25
aVLSUShep10
p26
aVrandywattson
p27
aVDiddings316
p28
aVDaeshonHall
p29
aVGrahamGano
p30
aVGmoney_7era
p31
aVwesso_96
p32
aVTylerLarsen58
p33
aVDAnderson314
p34
aVTorreySmithWR
p35
aVrichiebrown39
p36
aVcjandersonb22
p37
aVAlex_Armah
p38
aVLookIn_Da_Miere
p39
aVBEECoxx
p40
aVShaqThompson_7
p41
aVtmoton72
p42
aVjuliuspeppers_
p43
aVMDOTADAMS20
p44
aVFozzyWhitt
p45
aVAminiSilatolu
p46
aVkelvinbenjamin
p47
aVEcrume_52
p48
aVNino_Black_9
p49
aVkk_mr93
p50
aVDWilliams_60
p51
aVHIT_STIQ4
p52
aVmrkylelove
p53
aVTheboss_8
p54
aVScootSimmons4
p55
atp56
Rp57
s.