(dp0
S'team'
p1
c__builtin__
set
p2
((lp3
V_teddy_k
p4
aVBumpNrunGilm0re
p5
aVMalcolmJarod
p6
aVMFlowers59
p7
aVCyJones_
p8
aVRoberts_52
p9
aVLaAdrianWaddle
p10
aVTony_Garcia53
p11
aVJosephThuney
p12
aVbrandincooks
p13
aVJeremyHill33
p14
aVSebVollmer
p15
aVShaqDiesel_70
p16
aVAJelks_50
p17
aVdharm32
p18
aVhollister_jacob
p19
aVcammyjfresh
p20
aVdandrews61
p21
aV_KING205
p22
aVJames_Develin
p23
aVChrisHogan_15
p24
aVmcckshea
p25
aVBB_HulkSmash
p26
aVIII_Flowers
p27
aVR_Allen86
p28
aVSweetFeet_White
p29
aVAJaClay
p30
aVPatrickChung23
p31
aVsoldernate
p32
aVShowinStatsSam
p33
aVwisehog94
p34
aVDionLewisRB
p35
aVNateEbner
p36
aVthatLGUY
p37
aVLANGI21
p38
aVD_Rivers11
p39
aVKVN_03
p40
aVGeneo_G
p41
aVceeflashpee84
p42
aVC_hollister81
p43
aVNVBentley33
p44
aVEricRowe32
p45
aVzeus30hightower
p46
aVEdelman11
p47
aViwynn77
p48
aV7upya__
p49
aVTheRealVRVJ
p50
aVHNYNUT_BERRIOS
p51
aVMarcuscannon61
p52
aVCole_Croston
p53
aVninko50
p54
aVMcCourtyTwins
p55
aVFlyguy2stackz
p56
aVMac_BZ
p57
aVmikescogilly
p58
aVDannyAmendola
p59
aVRobGronkowski
p60
aVDanny_Shelton55
p61
aVJonathan_Jones2
p62
aVRBrex2022
p63
aVDorsett_4
p64
atp65
Rp66
s.