(dp0
S'team'
p1
c__builtin__
set
p2
((lp3
VDex_Mac
p4
aVcmjames_05
p5
aVCharlesWoodson
p6
aVJylanWare
p7
aV52Mack_
p8
aV_gconley8
p9
aVKOseven0
p10
aV15HARLEM_BOSKI
p11
aVRocketRich30
p12
aVJustinTuck
p13
aVFam1stFamilyQB
p14
aV684_Luani05
p15
aVDavidAmerson1
p16
aVJordyRNelson
p17
aVAmariCooper9
p18
aVConnor_Cook03
p19
aVcowstown
p20
aVJeLLy_ThaDON
p21
aVPharaohsDream
p22
aVUnitedSt8Of_Ham
p23
aVbigsmooth61
p24
aVEmanLamur
p25
aVBig_Tah47
p26
aVRodWoodson26
p27
aVK_SMITH31
p28
aVjrolawale
p29
aVShareeceWright
p30
aVJaredCook89
p31
aVSpotliteUno
p32
aVv_alex74
p33
aVdwa5hington
p34
aVLeeSmith_86
p35
aVShilique89
p36
aVD_Harris17
p37
aVDPENN70
p38
aVJohnno_uc3
p39
aVmgilchr
p40
aVJordanSimmons68
p41
aVVanderdoes94
p42
aVisaacwhitney8
p43
aVEJManuel3
p44
aVBIrvin_WVU11
p45
aVSharpe_Theory
p46
aVMoneyLynch
p47
aVderekcarrqb
p48
aVDATS_KELLZOCHO
p49
aVe_harris_31
p50
aVMongoFeliciano
p51
aVKeonHatcher
p52
aVObi_1nOnly
p53
aVSethTRoberts
p54
aV68Breno
p55
aVMarioEdwardsJr
p56
aVBigBusiness_25
p57
atp58
Rp59
s.