(dp0
S'team'
p1
c__builtin__
set
p2
((lp3
VJ_FranklinMyers
p4
aVEricDickerson
p5
aVJD_22bsm
p6
aVseanmannion4
p7
aVHagerBryce
p8
aVKingTutt_chdown
p9
aVjnoteboom68
p10
aVJaredGoff16
p11
aVMallyCat_28
p12
aVOrlandoPace_HOF
p13
aVTravinTheGreat
p14
aVJakeMcQuaide
p15
aVJHekker
p16
aVrobhavenstein78
p17
aVTheeCount2
p18
aVDexMcCleon21
p19
aVawhitworth77
p20
aVDWill_76
p21
aVTG3II
p22
aVlawlerjustin99
p23
aVrobertwoods
p24
aVMarcBulger10
p25
aVDominiqueEasley
p26
aVKevinCarter_93
p27
aVsficken1
p28
aVslotgod23
p29
aVTy_Higs19
p30
aVAyyyeeeMoFox
p31
aVEllardHop85
p32
aVJB_The_GREAT_68
p33
aVM_B_24
p34
aVRodger_Saffold
p35
aVAqibTalib21
p36
aVEastyBeasty90
p37
aVmarshallfaulk
p38
aVMichaelBrockers
p39
aVlightningstrk12
p40
aVBigGame81
p41
aVsamysosa_3
p42
aVJASully65
p43
aVcallmequi_
p44
aVNdamukongSuh
p45
aVTreYoung35
p46
aVkurt13warner
p47
aVCoryLittleton58
p48
aVIsaacBruce80
p49
aVABlythe63
p50
aVBAllen65_
p51
aVJKShuttlesworth
p52
aVDBL_L_01
p53
aVTegray_Scales8
p54
aVTeamDemby
p55
aVOgboOkoronkwo
p56
aVbrandincooks
p57
aVAaronDonald97
p58
aVrolandspeaks
p59
aVSJD_51
p60
aVCooperKupp
p61
aVtj_bchillen
p62
aVmarcuspeters
p63
aVtheblood85
p64
aVkiser_rollin
p65
aViamjohnthethird
p66
atp67
Rp68
s.