(dp0
S'team'
p1
c__builtin__
set
p2
((lp3
VLWebb21
p4
aVJamal31Lewis
p5
aVtbowser23
p6
aVInMarkWeTrust
p7
aVBCarr39
p8
aVQuincyA18
p9
aVKingCrab15
p10
aVVedvik16
p11
aVChuckC36
p12
aVzachsieler
p13
aVNLtyoung
p14
aVmarlon_humphrey
p15
aVAnquanBoldin
p16
aVTheRealZSmith
p17
aVZO35
p18
aVTwentyER
p19
aVJForsett
p20
aVmikepierce_97
p21
aVChris_Wormley43
p22
aVOJBrigance
p23
aVWE_69
p24
aVmulatto15
p25
aVTheRealJacoby12
p26
aVAndreTheeeGiant
p27
aVTheMainShow_
p28
aVweddlesbeard
p29
aVmorgancox46
p30
aVBrandonW_66
p31
aVKennyYounggg
p32
aVIamtheGuru79
p33
aVjonathanogden75
p34
aVJohnCUrschel
p35
aVMauriceCanady26
p36
aVMatt_Skura62
p37
aV89SteveSmith
p38
aVWillie_Snead4G
p39
aVdanny__woodhead
p40
aVhaydenrhurst
p41
aVRealJimmySmith
p42
aVman_dammn
p43
aVLegendaryLasley
p44
aVJ__Scott16
p45
aVTreyDeuce32RTR
p46
aVlewis_flock72
p47
aVMy_Tyme10
p48
aVurbanlegend96
p49
aVCoachBillick
p50
aVVince_Mayle
p51
aVCorreaKamalei
p52
aVKaiNacua
p53
aVSam_Koch4
p54
aVuntouchablejay4
p55
aV_tonyjefferson
p56
aVOfficialShon_4
p57
aVAndrewDonnal
p58
aVBenjaminSWatson
p59
aVsinjen66
p60
aVZEUS__78
p61
aVBartScott57
p62
aVLj_era8
p63
aVBdbam4_
p64
aV_MylesHump
p65
aVB_Perriman11
p66
aVJaYbOi225
p67
aVJoeFlacco
p68
aVALevine41
p69
aVjtuck9
p70
aVDPo8
p71
aVBudda03
p72
aVAD2LIVE_4
p73
aVDeLanceTurner
p74
aVWallace17_daKid
p75
aVnickboyle86
p76
aVraylewis
p77
aVDee_Willl2
p78
aVMandrews_81
p79
aVkleenstandout
p80
aVchristianlac91
p81
aVYandaMarshal
p82
aVnicosiragusa56
p83
aVRGIII
p84
aVJaelon_Acklin
p85
aVTrenchwork94
p86
aV_BONEHEAD_tez_
p87
aVB_Jax2
p88
aVrealbuckallen
p89
aVBriganceBrigade
p90
aVtim_white6
p91
aVMr_Woodrum1
p92
aVdennispitta
p93
aVJwalk_back12
p94
aVQuice_
p95
aVgregorysenat
p96
aVwilliams_maxx
p97
aVBSBoze
p98
aVPRic508
p99
aVtsieg58
p100
atp101
Rp102
s.