(dp0
S'team'
p1
c__builtin__
set
p2
((lp3
VLFletcher59
p4
aVBMitchliveNBCS
p5
aVTheRealC_Portis
p6
aVBigJon76
p7
aVSteiger78
p8
aVJoeJacoby66HOG
p9
aVDexterKManley72
p10
aVMarkRypien
p11
aVdarrellgreen28
p12
aVTheismann7
p13
aVEIGHTTODANINE
p14
aVriggo44
p15
aVtransition57
p16
aVJimLachey64
p17
aVEByner
p18
atp19
Rp20
s.