(dp0
S'team'
p1
c__builtin__
set
p2
((lp3
VJGE_Allen66
p4
aVMarcusWilliams
p5
aVAndrusPeat
p6
aVCoby
p7
aVChris1Banjo
p8
aVA_kamara6
p9
aVT_Hill4
p10
aVPjWilliams_26
p11
aVclayharbs82
p12
aVBighill44
p13
aVMarkIngram22
p14
aVGhostBoysENT
p15
aVwil_lutz5
p16
aVTheVonnBell7
p17
aVRankinsSheldon
p18
aVTomSavage03
p19
aVDLasco2
p20
aVwardaddy_75
p21
aVRIPGADGETT
p22
aVT_Armstead72
p23
aVsoar44
p24
aVZachStrief
p25
aVdemario__davis
p26
aVNick_Fairley251
p27
aVcamjordan94
p28
aVAPieceoF_Art
p29
aVKvmrin
p30
aVLewisTommylee
p31
aVDavisonTyeler
p32
aVjphillips8983
p33
aVACES_E
p34
aVAlexJenkins15
p35
aVrbush36
p36
aVthomasmorstead
p37
aVTedGinnJr_19
p38
aVdrewbrees
p39
aVB_Cole16
p40
aVPatRobinson25
p41
aVAJKlein47
p42
aVayeseeme
p43
aVCantguardmike
p44
aVMaxUnger60
p45
aVAlexAnzalone47
p46
aVQua_Nito
p47
aVthenastynate54
p48
aVC__Robertson
p49
aVaokafor57
p50
aVKennyVaccaro4
p51
aVRyanRamczyk1
p52
aVshonrp2
p53
aVj_bushrod7475
p54
aVtravindural
p55
aVG80grif
p56
aVEl_Tee_78
p57
atp58
Rp59
s.