(dp0
S'team'
p1
c__builtin__
set
p2
((lp3
VMSU_LEEK4
p4
aVTDLockett12
p5
aVFreetownsfinest
p6
aVJustinColeman27
p7
aVMarcusSmithII
p8
aVWill_Diss
p9
aVJdMckissic
p10
aVProsisely_22
p11
aVShaquillG
p12
aVdionj95
p13
aVJayMy_31
p14
aV1j_reed
p15
aVMcgoughAlex
p16
aVJacobSpeaks_
p17
aVEthanPocic
p18
aVS_Morris17
p19
aVcliffavril
p20
aVD_alexander57
p21
aVJordanRoos64
p22
aVmdcksn
p23
aVkeke_mingo
p24
aVKJ_WRIGHT34
p25
aVjaronbrown13
p26
aVDougBaldwinJr
p27
aVMikeDavisRB
p28
aVRees_o71
p29
aVTheRealFrankC_
p30
aVMarkGlowinski73
p31
aVDangeRussWilson
p32
aVlanokash
p33
aVDJTheWarrior76
p34
aVpennyhendrixx
p35
aVnazjones90
p36
aVShaquemgriffin
p37
aVOttomatic82
p38
aVMojomdj
p39
aVEarl_Thomas
p40
aVPeteCarroll
p41
aVN_Vannett81
p42
aVOday_Aboushi75
p43
aVNeiko15
p44
aVMoYo_45
p45
aVtswoopes18
p46
aVras_green
p47
aVJonRyan9
p48
aVKamChancellor
p49
aVDmoeSwagg23
p50
aVBwagz
p51
aVagentdre0019
p52
aVnuevexted
p53
aVjjones_74
p54
aVEdDickson84
p55
aVGermainX1
p56
aVBabyLead
p57
aV_michaeltyson_
p58
aVDuaneBrown76
p59
aVGeorgeFant74
p60
aVccarson_32
p61
aVjoeyhunt53
p62
atp63
Rp64
s.