(dp0
S'team'
p1
c__builtin__
set
p2
((lp3
VNatBerhe
p4
aVuno_summers1
p5
aVJoshuaFrazier69
p6
aVbkeisel99
p7
aVGalambos47
p8
aVChuks__76
p9
aV44_Matakevich
p10
aVWizardOfBoz09
p11
aVJohn_Malecki
p12
aVjustfollowZae23
p13
aVCamHeyward
p14
aVKyleFriend79
p15
aVVMcDonald89
p16
aV_BigBen7
p17
aVBMac_SportsTalk
p18
aVChrisSchleuger
p19
aVplaxicoburress
p20
aVChico_Hndrxx
p21
aVMaurkicePouncey
p22
aVTunchIlkin
p23
aVparkercollins75
p24
aVTheRealRandleEl
p25
aVcase_man_
p26
aVJeromeBettis36
p27
aV_audi8
p28
aVMarcusGilbert88
p29
aVcivilSAVAGE1
p30
aVMikeHilton_28
p31
aVtommymad8
p32
aVVinnyVidiVici98
p33
aVJay_MostWanted
p34
aV_TJWatt
p35
aVbigk73
p36
aVJonBostic
p37
aVJJames18_
p38
aVmvp86hinesward
p39
aVJarvionFranklin
p40
aVJamesFarrior
p41
aVDat_Dude_Nix
p42
aVLandryJones12
p43
aV1CSW
p44
aVLynn88Swann
p45
aVCharlieBatch16
p46
aVJamesConner_
p47
aVchadbrown94
p48
aVsmooov
p49
aVbbrooks72NBCS
p50
aVcatcenter66
p51
aVgoldchaingolden
p52
aVi_Serve24
p53
aV44_kirkland
p54
aVDermonttiDawson
p55
aVmerrilhoge
p56
aVToussaint_Mr28
p57
aVKam_canaday57
p58
aVChickillo56
p59
aVTeamJuJu
p60
aVCaptainHooks203
p61
aVmaxstarks78
p62
aVtheDHB85
p63
aVMoBetta_42
p64
aVbubbahawk10
p65
aVhokiebro76
p66
aVB_ALLO_14
p67
aVRockyBleier
p68
aVLT_Da_DT
p69
aVDOCnation_7
p70
aVCowherCBS
p71
aVBud_Dupree
p72
aVmlogan31
p73
aVCotySense
p74
aVrell_island6
p75
aVDreadHead_Vick
p76
aVJustHaveUno
p77
aV3williethadude9
p78
aVterrybradshaw
p79
aVThe_GilmoreEra
p80
aVkeithkelsey55
p81
aVafan66
p82
aVJBerry_4
p83
aVumdsfinest21
p84
aVsackmaster91
p85
aVRyanShazier
p86
aVJ_Sum21
p87
aVDreeHenderson
p88
aVDangerfield__
p89
aVTonyDungy
p90
aVRudolph2Mason
p91
aVjames_james28
p92
aVjosh_dobbs1
p93
aVCoachTomlin
p94
aVRamonFoster
p95
aVLeVeonBell
p96
aVRodWoodson26
p97
aVAB84
p98
aVToneTime10
p99
aVRealrclark25
p100
aVFHARO_Turn91
p101
aVJakeOvaTheWorld
p102
aVjoehaden23
p103
aVfrancoharrishof
p104
aVCamSutton20
p105
aVCraigWolfley
p106
aVTMLFirm
p107
aVLove_Ola_9
p108
aVtpolamalu
p109
aVIke_SwagginU
p110
atp111
Rp112
s.