(dp0
S'team'
p1
c__builtin__
set
p2
((lp3
Vjoshkline64
p4
aVking_david1989
p5
aVAntwaunWoods_
p6
aVJack_Conklin78
p7
aVryansuccop
p8
aVkillabeaton
p9
aVcyp
p10
aVJayonBrown12
p11
aVMac_BZ
p12
aVMikeCamp_12
p13
aVDB_5trey
p14
aVYoungTrawick_
p15
aVTyeSmithCB
p16
aVDennisKelly67
p17
aVHaroldLandry
p18
aVquinton_spain
p19
aVnatep4
p20
aV616evans4
p21
aVShow19ine
p22
aVbigxmanee
p23
aVDariusJennings_
p24
aVJurrellc
p25
aVDeBrown97
p26
aVBlaineGabbert
p27
aVTaylorLewan77
p28
aVRealLoganRyan
p29
aVCoach_JKrause
p30
aVKingHenry_2
p31
aVTitans
p32
aVDionLewisRB
p33
aVLeshaunSims
p34
aVrak98
p35
aVAJohn15
p36
aVHDouglas83
p37
aVAdoreeKnows
p38
aV_willcompton
p39
aVKB31_Era
p40
aVCoreyLevin62
p41
aVEasymoney_81
p42
aVTheCDavis84
p43
aVkdodd98
p44
aVbrettkern6
p45
aVdelaniewalker82
p46
aVBrianSchwenke
p47
aVBrinkley86
p48
aVda_king_son18
p49
aVJoshuaCarraway
p50
aVTDSemisch85
p51
aVTrey_Zero
p52
aVdmorg91
p53
aVSilentGrind2
p54
aVRiDQulous_98
p55
aVKevinPamphile64
p56
aVWoodDro52
p57
atp58
Rp59
s.