(dp0
S'team'
p1
c__builtin__
set
p2
((lp3
VEricKendricks54
p4
aVDMORG_82
p5
aVDieugotJoseph
p6
aVKMcD47
p7
aVTkunodos
p8
aVmakeitlookeasyy
p9
aVSdotRich91
p10
aVstormnorton74
p11
aVRashodHill
p12
aVcurtiscothran52
p13
aVMackAlexander20
p14
aV_Bigmikee1
p15
aVRichHomieHorace
p16
aVkoreyRobertson8
p17
aVAsendejo
p18
aVMojoTocho
p19
aV_hetoohollywood
p20
aVherculesuluao50
p21
aVHOOSDatDude
p22
aVcjham28
p23
aVEWIL23
p24
aVgdooley34
p25
aVKyleRudolph82
p26
aV94gotdajuice
p27
aVDHunt94_TX
p28
aVJoshAndrews621
p29
aVmremmers74
p30
aVtwanyouafool
p31
aVBrian_Robison
p32
aVcedison_
p33
aVUno_Kam
p34
aV_lococinco
p35
aVBishopSankey
p36
aVHarriSmith22
p37
aVAviante69
p38
aVSuccessfulQuon
p39
aVTrigga_Tray28
p40
aVJayronkearse8
p41
aVJeffBadet__
p42
aVleellxvii
p43
aVXavierRhodes29_
p44
aVIfeadiOdenigbo
p45
aVbgedeon42
p46
aVjake_wieneke
p47
aVB_Bell10
p48
aVReshardCliett
p49
aVxRoct6
p50
aV1kendallwright
p51
aVEversonGriffen
p52
aVKaiForbath
p53
aVTWaynes_15
p54
aVMichaelMFloyd
p55
aVjohnnystantoniv
p56
aVKirkCousins8
p57
aVKyleSloter
p58
aVPeterPujals6
p59
aVDANNY__63
p60
aVbrandon_zylstra
p61
aVchadgreenway52
p62
aVTDHAthlete
p63
aVgoinsteady19
p64
aVathielen19
p65
aVterencenewman
p66
aVbrian_oneill_
p67
aVKentrell_Mizzou
p68
aVCaylebJones
p69
aVtylerhoppes
p70
aVAnthonyBarr
p71
aVdalvincook
p72
aVTm6k_
p73
aVTashawnBower
p74
aVstefondiggs
p75
aVLataviusM
p76
aVsharriffloyd
p77
aVMacombGrown44
p78
aVelflein65
p79
aVHollywood__5
p80
atp81
Rp82
s.